$VAR1 = {
          'ABI_DUMPER_VERSION' => '0.99.12',
          'ABI_DUMP_VERSION' => '3.2',
          'Arch' => 'x86',
          'Compiler' => 'GNU C++11 5.2.1 20151028 -mtune=generic -march=i686 -g -O2 -std=c++11 -fstack-protector-strong -fvisibility=default -fno-permissive -fPIC -fstack-protector-strong',
          'Headers' => {
                         'AbstractScopeBase.h' => 1,
                         'ActionMetadata.h' => 1,
                         'ActivationListenerBase.h' => 1,
                         'ActivationQueryBase.h' => 1,
                         'ActivationResponse.h' => 1,
                         'Annotation.h' => 1,
                         'Benchmark.h' => 1,
                         'BufferedResultForwarder.h' => 1,
                         'CannedQuery.h' => 1,
                         'CategorisedResult.h' => 1,
                         'Category.h' => 1,
                         'CategoryRenderer.h' => 1,
                         'ChildScope.h' => 1,
                         'ColumnLayout.h' => 1,
                         'CompletionDetails.h' => 1,
                         'DateTimePickerFilter.h' => 1,
                         'Department.h' => 1,
                         'FilterBase.h' => 1,
                         'FilterOption.h' => 1,
                         'FilterState.h' => 1,
                         'InProcessBenchmark.h' => 1,
                         'Link.h' => 1,
                         'ListenerBase.h' => 1,
                         'Location.h' => 1,
                         'Object.h' => 1,
                         'ObjectProxyFwd.h' => 1,
                         'OnlineAccountClient.h' => 1,
                         'OperationInfo.h' => 1,
                         'OptionSelectorFilter.h' => 1,
                         'OutOfProcessBenchmark.h' => 1,
                         'PreviewListenerBase.h' => 1,
                         'PreviewQueryBase.h' => 1,
                         'PreviewReply.h' => 1,
                         'PreviewReplyProxyFwd.h' => 1,
                         'PreviewWidget.h' => 1,
                         'QueryBase.h' => 1,
                         'QueryCtrl.h' => 1,
                         'QueryCtrlProxyFwd.h' => 1,
                         'QueryMetadata.h' => 1,
                         'RadioButtonsFilter.h' => 1,
                         'RangeInputFilter.h' => 1,
                         'RatingFilter.h' => 1,
                         'Registry.h' => 1,
                         'RegistryProxyFwd.h' => 1,
                         'Reply.h' => 1,
                         'Result.h' => 1,
                         'Runtime.h' => 1,
                         'Scope.h' => 1,
                         'ScopeBase.h' => 1,
                         'ScopeExceptions.h' => 1,
                         'ScopeMetadata.h' => 1,
                         'ScopeMetadataBuilder.h' => 1,
                         'ScopeProxyFwd.h' => 1,
                         'SearchListenerBase.h' => 1,
                         'SearchMetadata.h' => 1,
                         'SearchQueryBase.h' => 1,
                         'SearchReply.h' => 1,
                         'SearchReplyProxyFwd.h' => 1,
                         'Statistics.h' => 1,
                         'SwitchFilter.h' => 1,
                         'TypedScopeFixture.h' => 1,
                         'ValueSliderFilter.h' => 1,
                         'Variant.h' => 1,
                         'VariantBuilder.h' => 1,
                         'Version.h' => 1
                       },
          'Language' => 'C++',
          'LibraryName' => 'libunity-scopes.so.1.0.2',
          'LibraryVersion' => '1.0.2',
          'NameSpaces' => {
                            'Json' => 1,
                            '__cxxabiv1' => 1,
                            '__gnu_cxx' => 1,
                            '__gnu_cxx::__ops' => 1,
                            'boost' => 1,
                            'boost::CV' => 1,
                            'boost::_bi' => 1,
                            'boost::_mfi' => 1,
                            'boost::accumulators' => 1,
                            'boost::accumulators::detail' => 1,
                            'boost::accumulators::extract' => 1,
                            'boost::accumulators::impl' => 1,
                            'boost::accumulators::tag' => 1,
                            'boost::algorithm' => 1,
                            'boost::algorithm::detail' => 1,
                            'boost::archive' => 1,
                            'boost::archive::detail' => 1,
                            'boost::chrono' => 1,
                            'boost::container' => 1,
                            'boost::core' => 1,
                            'boost::date_time' => 1,
                            'boost::detail' => 1,
                            'boost::detail::aligned_storage' => 1,
                            'boost::detail::function' => 1,
                            'boost::detail::optional_detail' => 1,
                            'boost::detail::static_log2_impl' => 1,
                            'boost::detail::variant' => 1,
                            'boost::exception_detail' => 1,
                            'boost::filesystem' => 1,
                            'boost::filesystem::detail' => 1,
                            'boost::fusion' => 1,
                            'boost::fusion::detail' => 1,
                            'boost::fusion::extension' => 1,
                            'boost::fusion::result_of' => 1,
                            'boost::fusion::traits' => 1,
                            'boost::gregorian' => 1,
                            'boost::io' => 1,
                            'boost::io::detail' => 1,
                            'boost::iterator_range_detail' => 1,
                            'boost::iterators' => 1,
                            'boost::iterators::detail' => 1,
                            'boost::log::v2_mt_posix' => 1,
                            'boost::log::v2_mt_posix::attributes' => 1,
                            'boost::log::v2_mt_posix::aux' => 1,
                            'boost::log::v2_mt_posix::expressions' => 1,
                            'boost::log::v2_mt_posix::expressions::aux' => 1,
                            'boost::log::v2_mt_posix::expressions::aux::date_time_support' => 1,
                            'boost::log::v2_mt_posix::expressions::tag' => 1,
                            'boost::log::v2_mt_posix::keywords' => 1,
                            'boost::log::v2_mt_posix::keywords::tag' => 1,
                            'boost::log::v2_mt_posix::result_of' => 1,
                            'boost::log::v2_mt_posix::sinks' => 1,
                            'boost::log::v2_mt_posix::sinks::file' => 1,
                            'boost::log::v2_mt_posix::sinks::file::aux' => 1,
                            'boost::log::v2_mt_posix::sources' => 1,
                            'boost::log::v2_mt_posix::sources::aux' => 1,
                            'boost::log::v2_mt_posix::trivial' => 1,
                            'boost::log::v2_mt_posix::trivial::tag' => 1,
                            'boost::math' => 1,
                            'boost::math::constants' => 1,
                            'boost::math::constants::detail' => 1,
                            'boost::math::detail' => 1,
                            'boost::math::lanczos' => 1,
                            'boost::math::long_double_constants' => 1,
                            'boost::math::policies' => 1,
                            'boost::math::policies::detail' => 1,
                            'boost::math::tools' => 1,
                            'boost::math::tools::detail' => 1,
                            'boost::move_detail' => 1,
                            'boost::mpl' => 1,
                            'boost::mpl::aux' => 1,
                            'boost::noncopyable_' => 1,
                            'boost::numeric' => 1,
                            'boost::numeric::functional' => 1,
                            'boost::numeric::op' => 1,
                            'boost::optional_detail' => 1,
                            'boost::parameter' => 1,
                            'boost::parameter::aux' => 1,
                            'boost::phoenix' => 1,
                            'boost::phoenix::arg_names' => 1,
                            'boost::phoenix::detail' => 1,
                            'boost::phoenix::detail::tag' => 1,
                            'boost::phoenix::expression' => 1,
                            'boost::phoenix::local_names' => 1,
                            'boost::phoenix::result_of' => 1,
                            'boost::posix' => 1,
                            'boost::posix_time' => 1,
                            'boost::proto' => 1,
                            'boost::proto::argsns_' => 1,
                            'boost::proto::context' => 1,
                            'boost::proto::detail' => 1,
                            'boost::proto::detail::anyns' => 1,
                            'boost::proto::domainns_' => 1,
                            'boost::proto::envns_' => 1,
                            'boost::proto::exprns_' => 1,
                            'boost::proto::result_of' => 1,
                            'boost::proto::tagns_::tag' => 1,
                            'boost::pthread' => 1,
                            'boost::range' => 1,
                            'boost::range_adl_barrier' => 1,
                            'boost::range_detail' => 1,
                            'boost::serialization' => 1,
                            'boost::serialization::detail' => 1,
                            'boost::serialization::ext' => 1,
                            'boost::serialization::smart_cast_impl' => 1,
                            'boost::serialization::stl' => 1,
                            'boost::serialization::typeid_system' => 1,
                            'boost::sp_adl_block' => 1,
                            'boost::system' => 1,
                            'boost::system::errc' => 1,
                            'boost::this_thread' => 1,
                            'boost::thread_cv_detail' => 1,
                            'boost::thread_detail' => 1,
                            'boost::tt_align_ns' => 1,
                            'boost::type_traits' => 1,
                            'boost::typeindex' => 1,
                            'capnp' => 1,
                            'capnp::_' => 1,
                            'capnp::schemas' => 1,
                            'core' => 1,
                            'core::net' => 1,
                            'core::net::http' => 1,
                            'core::posix' => 1,
                            'core::posix::exit' => 1,
                            'core::posix::wait' => 1,
                            'kj' => 1,
                            'kj::_' => 1,
                            'mpl_' => 1,
                            'proto2' => 1,
                            'std' => 1,
                            'std::_V2' => 1,
                            'std::__cxx11' => 1,
                            'std::__detail' => 1,
                            'std::__exception_ptr' => 1,
                            'std::chrono' => 1,
                            'std::chrono::_V2' => 1,
                            'testing' => 1,
                            'testing::internal' => 1,
                            'testing::internal2' => 1,
                            'unity' => 1,
                            'unity::scopes' => 1,
                            'unity::scopes::experimental' => 1,
                            'unity::scopes::internal' => 1,
                            'unity::scopes::internal::reaper_private' => 1,
                            'unity::scopes::internal::smartscopes' => 1,
                            'unity::scopes::internal::tag' => 1,
                            'unity::scopes::internal::zmq_middleware' => 1,
                            'unity::scopes::internal::zmq_middleware::capnproto' => 1,
                            'unity::scopes::internal::zmq_middleware::capnproto::Query' => 1,
                            'unity::scopes::internal::zmq_middleware::capnproto::Registry' => 1,
                            'unity::scopes::internal::zmq_middleware::capnproto::Reply' => 1,
                            'unity::scopes::internal::zmq_middleware::capnproto::Scope' => 1,
                            'unity::scopes::internal::zmq_middleware::capnproto::StateReceiver' => 1,
                            'unity::scopes::testing' => 1,
                            'unity::scopes::utility' => 1,
                            'unity::scopes::utility::internal' => 1,
                            'unity::util' => 1,
                            'unity::util::internal' => 1,
                            'zmqpp' => 1
                          },
          'Needed' => {
                        'ld-linux.so.2' => 1,
                        'libaccounts-glib.so.0' => 1,
                        'libapparmor.so.1' => 1,
                        'libboost_filesystem.so.1.58.0' => 1,
                        'libboost_log.so.1.58.0' => 1,
                        'libboost_serialization.so.1.58.0' => 1,
                        'libboost_system.so.1.58.0' => 1,
                        'libboost_thread.so.1.58.0' => 1,
                        'libc.so.6' => 1,
                        'libcapnp-0.4.0.so' => 1,
                        'libdl.so.2' => 1,
                        'libgcc_s.so.1' => 1,
                        'libglib-2.0.so.0' => 1,
                        'libgobject-2.0.so.0' => 1,
                        'libjsoncpp.so.0' => 1,
                        'libm.so.6' => 1,
                        'libnet-cpp.so.2' => 1,
                        'libprocess-cpp.so.3' => 1,
                        'libpthread.so.0' => 1,
                        'libsignon-glib.so.1' => 1,
                        'libstdc++.so.6' => 1,
                        'libunity-api.so.0' => 1,
                        'libzmq.so.3' => 1,
                        'libzmqpp.so.3' => 1
                      },
          'PublicABI' => '1',
          'Sources' => {
                         'ActionMetadata.cpp' => 1,
                         'ActivationListenerBase.cpp' => 1,
                         'ActivationQueryBase.cpp' => 1,
                         'ActivationResponse.cpp' => 1,
                         'Annotation.cpp' => 1,
                         'Benchmark.cpp' => 1,
                         'BufferedResultForwarder.cpp' => 1,
                         'CannedQuery.cpp' => 1,
                         'CategorisedResult.cpp' => 1,
                         'Category.cpp' => 1,
                         'CategoryRenderer.cpp' => 1,
                         'ChildScope.cpp' => 1,
                         'ColumnLayout.cpp' => 1,
                         'CompletionDetails.cpp' => 1,
                         'DateTimePickerFilter.cpp' => 1,
                         'Department.cpp' => 1,
                         'FilterBase.cpp' => 1,
                         'FilterOption.cpp' => 1,
                         'FilterState.cpp' => 1,
                         'HttpClientNetCpp.cpp' => 1,
                         'InProcessBenchmark.cpp' => 1,
                         'Link.cpp' => 1,
                         'ListenerBase.cpp' => 1,
                         'Location.cpp' => 1,
                         'Object.cpp' => 1,
                         'OnlineAccountClient.cpp' => 1,
                         'OperationInfo.cpp' => 1,
                         'OptionSelectorFilter.cpp' => 1,
                         'OutOfProcessBenchmark.cpp' => 1,
                         'PreviewListenerBase.cpp' => 1,
                         'PreviewQueryBase.cpp' => 1,
                         'PreviewWidget.cpp' => 1,
                         'QueryBase.cpp' => 1,
                         'QueryCtrl.cpp' => 1,
                         'QueryMetadata.cpp' => 1,
                         'RadioButtonsFilter.cpp' => 1,
                         'RangeInputFilter.cpp' => 1,
                         'RatingFilter.cpp' => 1,
                         'Result.cpp' => 1,
                         'Runtime.cpp' => 1,
                         'Scope.cpp' => 1,
                         'ScopeBase.cpp' => 1,
                         'ScopeExceptions.cpp' => 1,
                         'ScopeMetadata.cpp' => 1,
                         'ScopeMetadataBuilder.cpp' => 1,
                         'SearchListenerBase.cpp' => 1,
                         'SearchMetadata.cpp' => 1,
                         'SearchQueryBase.cpp' => 1,
                         'Statistics.cpp' => 1,
                         'SwitchFilter.cpp' => 1,
                         'TypedScopeFixture.cpp' => 1,
                         'ValueSliderFilter.cpp' => 1,
                         'Variant.cpp' => 1,
                         'VariantBuilder.cpp' => 1,
                         'Version.cpp' => 1,
                         'atomic' => 1,
                         'bitset' => 1,
                         'chrono' => 1,
                         'condition_variable' => 1,
                         'functional' => 1,
                         'future' => 1,
                         'initializer_list' => 1,
                         'iosfwd' => 1,
                         'mutex' => 1,
                         'ratio' => 1,
                         'thread' => 1,
                         'tuple' => 1,
                         'type_traits' => 1
                       },
          'SymbolInfo' => {
                            '104508' => {
                                          'Class' => '104143',
                                          'Header' => 'Variant.h',
                                          'Line' => '106',
                                          'MnglName' => '_ZN5unity6scopes7Variant4nullEv',
                                          'Return' => '109344',
                                          'ShortName' => 'null',
                                          'Source' => 'Variant.cpp',
                                          'SourceLine' => '111',
                                          'Static' => 1
                                        },
                            '104618' => {
                                          'Class' => '104143',
                                          'Header' => 'Variant.h',
                                          'Line' => '119',
                                          'MnglName' => '_ZN5unity6scopes7VariantaSERKS1_',
                                          'Param' => {
                                                       '0' => {
                                                                'name' => 'this',
                                                                'offset' => '0',
                                                                'type' => '1278014'
                                                              },
                                                       '1' => {
                                                                'name' => 'rhs',
                                                                'offset' => '4',
                                                                'type' => '109344'
                                                              }
                                                     },
                                          'Return' => '109356',
                                          'ShortName' => 'operator=',
                                          'Source' => 'Variant.cpp',
                                          'SourceLine' => '124'
                                        },
                            '104653' => {
                                          'Class' => '104143',
                                          'Header' => 'Variant.h',
                                          'Line' => '120',
                                          'MnglName' => '_ZN5unity6scopes7VariantaSEOS1_',
                                          'Param' => {
                                                       '0' => {
                                                                'name' => 'this',
                                                                'offset' => '0',
                                                                'type' => '1278014'
                                                              },
                                                       '1' => {
                                                                'name' => 'p1',
                                                                'type' => '5851166'
                                                              }
                                                     },
                                          'Reg' => {
                                                     '1' => 'eax'
                                                   },
                                          'Return' => '109356',
                                          'ShortName' => 'operator='
                                        },
                            '104688' => {
                                          'Class' => '104143',
                                          'Header' => 'Variant.h',
                                          'Line' => '129',
                                          'MnglName' => '_ZN5unity6scopes7VariantaSEi',
                                          'Param' => {
                                                       '0' => {
                                                                'name' => 'this',
                                                                'offset' => '0',
                                                                'type' => '1278014'
                                                              },
                                                       '1' => {
                                                                'name' => 'val',
                                                                'offset' => '4',
                                                                'type' => '36631'
                                                              }
                                                     },
                                          'Return' => '109356',
                                          'ShortName' => 'operator=',
                                          'Source' => 'Variant.cpp',
                                          'SourceLine' => '132'
                                        },
                            '104723' => {
                                          'Class' => '104143',
                                          'Header' => 'Variant.h',
                                          'Line' => '130',
                                          'MnglName' => '_ZN5unity6scopes7VariantaSEx',
                                          'Param' => {
                                                       '0' => {
                                                                'name' => 'this',
                                                                'offset' => '0',
                                                                'type' => '1278014'
                                                              },
                                                       '1' => {
                                                                'name' => 'val',
                                                                'offset' => '4',
                                                                'type' => '39555'
                                                              }
                                                     },
                                          'Return' => '109356',
                                          'ShortName' => 'operator=',
                                          'Source' => 'Variant.cpp',
                                          'SourceLine' => '138'
                                        },
                            '104758' => {
                                          'Class' => '104143',
                                          'Header' => 'Variant.h',
                                          'Line' => '131',
                                          'MnglName' => '_ZN5unity6scopes7VariantaSEd',
                                          'Param' => {
                                                       '0' => {
                                                                'name' => 'this',
                                                                'offset' => '0',
                                                                'type' => '1278014'
                                                              },
                                                       '1' => {
                                                                'name' => 'val',
                                                                'offset' => '4',
                                                                'type' => '36659'
                                                              }
                                                     },
                                          'Return' => '109356',
                                          'ShortName' => 'operator=',
                                          'Source' => 'Variant.cpp',
                                          'SourceLine' => '144'
                                        },
                            '104793' => {
                                          'Class' => '104143',
                                          'Header' => 'Variant.h',
                                          'Line' => '132',
                                          'MnglName' => '_ZN5unity6scopes7VariantaSEb',
                                          'Param' => {
                                                       '0' => {
                                                                'name' => 'this',
                                                                'offset' => '0',
                                                                'type' => '1278014'
                                                              },
                                                       '1' => {
                                                                'name' => 'val',
                                                                'offset' => '4',
                                                                'type' => '36673'
                                                              }
                                                     },
                                          'Return' => '109356',
                                          'ShortName' => 'operator=',
                                          'Source' => 'Variant.cpp',
                                          'SourceLine' => '150'
                                        },
                            '104828' => {
                                          'Class' => '104143',
                                          'Header' => 'Variant.h',
                                          'Line' => '133',
                                          'MnglName' => '_ZN5unity6scopes7VariantaSERKNSt7__cxx1112basic_stringIcSt11char_traitsIcESaIcEEE',
                                          'Param' => {
                                                       '0' => {
                                                                'name' => 'this',
                                                                'offset' => '0',
                                                                'type' => '1278014'
                                                              },
                                                       '1' => {
                                                                'name' => 'val',
                                                                'offset' => '4',
                                                                'type' => '42113'
                                                              }
                                                     },
                                          'Return' => '109356',
                                          'ShortName' => 'operator=',
                                          'Source' => 'Variant.cpp',
                                          'SourceLine' => '156'
                                        },
                            '104863' => {
                                          'Class' => '104143',
                                          'Header' => 'Variant.h',
                                          'Line' => '134',
                                          'MnglName' => '_ZN5unity6scopes7VariantaSEPKc',
                                          'Param' => {
                                                       '0' => {
                                                                'name' => 'this',
                                                                'offset' => '0',
                                                                'type' => '1278014'
                                                              },
                                                       '1' => {
                                                                'name' => 'val',
                                                                'offset' => '4',
                                                                'type' => '36790'
                                                              }
                                                     },
                                          'Return' => '109356',
                                          'ShortName' => 'operator=',
                                          'Source' => 'Variant.cpp',
                                          'SourceLine' => '174'
                                        },
                            '104898' => {
                                          'Class' => '104143',
                                          'Header' => 'Variant.h',
                                          'Line' => '135',
                                          'MnglName' => '_ZN5unity6scopes7VariantaSERKSt3mapINSt7__cxx1112basic_stringIcSt11char_traitsIcESaIcEEES1_St4lessIS8_ESaISt4pairIKS8_S1_EEE',
                                          'Param' => {
                                                       '0' => {
                                                                'name' => 'this',
                                                                'offset' => '0',
                                                                'type' => '1278014'
                                                              },
                                                       '1' => {
                                                                'name' => 'val',
                                                                'offset' => '4',
                                                                'type' => '109332'
                                                              }
                                                     },
                                          'Return' => '109356',
                                          'ShortName' => 'operator=',
                                          'Source' => 'Variant.cpp',
                                          'SourceLine' => '162'
                                        },
                            '104933' => {
                                          'Class' => '104143',
                                          'Header' => 'Variant.h',
                                          'Line' => '136',
                                          'MnglName' => '_ZN5unity6scopes7VariantaSERKSt6vectorIS1_SaIS1_EE',
                                          'Param' => {
                                                       '0' => {
                                                                'name' => 'this',
                                                                'offset' => '0',
                                                                'type' => '1278014'
                                                              },
                                                       '1' => {
                                                                'name' => 'val',
                                                                'offset' => '4',
                                                                'type' => '109338'
                                                              }
                                                     },
                                          'Return' => '109356',
                                          'ShortName' => 'operator=',
                                          'Source' => 'Variant.cpp',
                                          'SourceLine' => '168'
                                        },
                            '104968' => {
                                          'Class' => '104143',
                                          'Const' => 1,
                                          'Header' => 'Variant.h',
                                          'Line' => '147',
                                          'MnglName' => '_ZNK5unity6scopes7VarianteqERKS1_',
                                          'Param' => {
                                                       '0' => {
                                                                'name' => 'this',
                                                                'offset' => '0',
                                                                'type' => '5843960'
                                                              },
                                                       '1' => {
                                                                'name' => 'rhs',
                                                                'offset' => '4',
                                                                'type' => '109344'
                                                              }
                                                     },
                                          'Return' => '36673',
                                          'ShortName' => 'operator==',
                                          'Source' => 'Variant.cpp',
                                          'SourceLine' => '180'
                                        },
                            '105003' => {
                                          'Class' => '104143',
                                          'Const' => 1,
                                          'Header' => 'Variant.h',
                                          'Line' => '148',
                                          'MnglName' => '_ZNK5unity6scopes7VariantltERKS1_',
                                          'Param' => {
                                                       '0' => {
                                                                'name' => 'this',
                                                                'offset' => '0',
                                                                'type' => '5843960'
                                                              },
                                                       '1' => {
                                                                'name' => 'rhs',
                                                                'offset' => '4',
                                                                'type' => '109344'
                                                              }
                                                     },
                                          'Return' => '36673',
                                          'ShortName' => 'operator<',
                                          'Source' => 'Variant.cpp',
                                          'SourceLine' => '185'
                                        },
                            '105038' => {
                                          'Class' => '104143',
                                          'Const' => 1,
                                          'Header' => 'Variant.h',
                                          'Line' => '157',
                                          'MnglName' => '_ZNK5unity6scopes7Variant7get_intEv',
                                          'Param' => {
                                                       '0' => {
                                                                'name' => 'this',
                                                                'offset' => '0',
                                                                'type' => '5843960'
                                                              }
                                                     },
                                          'Return' => '36631',
                                          'ShortName' => 'get_int',
                                          'Source' => 'Variant.cpp',
                                          'SourceLine' => '190'
                                        },
                            '105068' => {
                                          'Class' => '104143',
                                          'Const' => 1,
                                          'Header' => 'Variant.h',
                                          'Line' => '158',
                                          'MnglName' => '_ZNK5unity6scopes7Variant11get_int64_tEv',
                                          'Param' => {
                                                       '0' => {
                                                                'name' => 'this',
                                                                'offset' => '0',
                                                                'type' => '5843960'
                                                              }
                                                     },
                                          'Return' => '39555',
                                          'ShortName' => 'get_int64_t',
                                          'Source' => 'Variant.cpp',
                                          'SourceLine' => '202'
                                        },
                            '105098' => {
                                          'Class' => '104143',
                                          'Const' => 1,
                                          'Header' => 'Variant.h',
                                          'Line' => '159',
                                          'MnglName' => '_ZNK5unity6scopes7Variant10get_doubleEv',
                                          'Param' => {
                                                       '0' => {
                                                                'name' => 'this',
                                                                'offset' => '0',
                                                                'type' => '5843960'
                                                              }
                                                     },
                                          'Return' => '36659',
                                          'ShortName' => 'get_double',
                                          'Source' => 'Variant.cpp',
                                          'SourceLine' => '214'
                                        },
                            '105128' => {
                                          'Class' => '104143',
                                          'Const' => 1,
                                          'Header' => 'Variant.h',
                                          'Line' => '160',
                                          'MnglName' => '_ZNK5unity6scopes7Variant8get_boolEv',
                                          'Param' => {
                                                       '0' => {
                                                                'name' => 'this',
                                                                'offset' => '0',
                                                                'type' => '5843960'
                                                              }
                                                     },
                                          'Return' => '36673',
                                          'ShortName' => 'get_bool',
                                          'Source' => 'Variant.cpp',
                                          'SourceLine' => '226'
                                        },
                            '105158' => {
                                          'Class' => '104143',
                                          'Const' => 1,
                                          'Header' => 'Variant.h',
                                          'Line' => '161',
                                          'MnglName' => '_ZNK5unity6scopes7Variant10get_stringB5cxx11Ev',
                                          'Param' => {
                                                       '0' => {
                                                                'name' => 'this',
                                                                'offset' => '4',
                                                                'type' => '5843960'
                                                              }
                                                     },
                                          'Return' => '6675',
                                          'ShortName' => 'get_string',
                                          'Source' => 'Variant.cpp',
                                          'SourceLine' => '238'
                                        },
                            '105188' => {
                                          'Class' => '104143',
                                          'Const' => 1,
                                          'Header' => 'Variant.h',
                                          'Line' => '162',
                                          'MnglName' => '_ZNK5unity6scopes7Variant8get_dictB5cxx11Ev',
                                          'Param' => {
                                                       '0' => {
                                                                'name' => 'this',
                                                                'offset' => '4',
                                                                'type' => '5843960'
                                                              }
                                                     },
                                          'Return' => '105481',
                                          'ShortName' => 'get_dict',
                                          'Source' => 'Variant.cpp',
                                          'SourceLine' => '250'
                                        },
                            '105218' => {
                                          'Class' => '104143',
                                          'Const' => 1,
                                          'Header' => 'Variant.h',
                                          'Line' => '163',
                                          'MnglName' => '_ZNK5unity6scopes7Variant9get_arrayEv',
                                          'Param' => {
                                                       '0' => {
                                                                'name' => 'this',
                                                                'offset' => '4',
                                                                'type' => '5843960'
                                                              }
                                                     },
                                          'Return' => '105497',
                                          'ShortName' => 'get_array',
                                          'Source' => 'Variant.cpp',
                                          'SourceLine' => '262'
                                        },
                            '105248' => {
                                          'Class' => '104143',
                                          'Const' => 1,
                                          'Header' => 'Variant.h',
                                          'Line' => '169',
                                          'MnglName' => '_ZNK5unity6scopes7Variant7is_nullEv',
                                          'Param' => {
                                                       '0' => {
                                                                'name' => 'this',
                                                                'offset' => '0',
                                                                'type' => '5843960'
                                                              }
                                                     },
                                          'Return' => '36673',
                                          'ShortName' => 'is_null',
                                          'Source' => 'Variant.cpp',
                                          'SourceLine' => '274'
                                        },
                            '105278' => {
                                          'Class' => '104143',
                                          'Const' => 1,
                                          'Header' => 'Variant.h',
                                          'Line' => '177',
                                          'MnglName' => '_ZNK5unity6scopes7Variant5whichEv',
                                          'Param' => {
                                                       '0' => {
                                                                'name' => 'this',
                                                                'offset' => '0',
                                                                'type' => '5843960'
                                                              }
                                                     },
                                          'Return' => '104155',
                                          'ShortName' => 'which',
                                          'Source' => 'Variant.cpp',
                                          'SourceLine' => '279'
                                        },
                            '105308' => {
                                          'Class' => '104143',
                                          'Header' => 'Variant.h',
                                          'Line' => '184',
                                          'MnglName' => '_ZN5unity6scopes7Variant4swapERS1_',
                                          'Param' => {
                                                       '0' => {
                                                                'name' => 'this',
                                                                'offset' => '0',
                                                                'type' => '1278014'
                                                              },
                                                       '1' => {
                                                                'name' => 'other',
                                                                'offset' => '4',
                                                                'type' => '109356'
                                                              }
                                                     },
                                          'Return' => '1',
                                          'ShortName' => 'swap',
                                          'Source' => 'Variant.cpp',
                                          'SourceLine' => '285'
                                        },
                            '105339' => {
                                          'Class' => '104143',
                                          'Const' => 1,
                                          'Header' => 'Variant.h',
                                          'Line' => '192',
                                          'MnglName' => '_ZNK5unity6scopes7Variant14serialize_jsonB5cxx11Ev',
                                          'Param' => {
                                                       '0' => {
                                                                'name' => 'this',
                                                                'offset' => '4',
                                                                'type' => '5843960'
                                                              }
                                                     },
                                          'Return' => '6675',
                                          'ShortName' => 'serialize_json',
                                          'Source' => 'Variant.cpp',
                                          'SourceLine' => '295'
                                        },
                            '105369' => {
                                          'Class' => '104143',
                                          'Header' => 'Variant.h',
                                          'Line' => '196',
                                          'MnglName' => '_ZN5unity6scopes7Variant16deserialize_jsonERKNSt7__cxx1112basic_stringIcSt11char_traitsIcESaIcEEE',
                                          'Param' => {
                                                       '0' => {
                                                                'name' => 'json_string',
                                                                'offset' => '4',
                                                                'type' => '42113'
                                                              }
                                                     },
                                          'Return' => '104143',
                                          'ShortName' => 'deserialize_json',
                                          'Source' => 'Variant.cpp',
                                          'SourceLine' => '301',
                                          'Static' => 1
                                        },
                            '105572' => {
                                          'Class' => '105518',
                                          'Const' => 1,
                                          'Header' => 'FilterState.h',
                                          'Line' => '53',
                                          'MnglName' => '_ZNK5unity6scopes11FilterState9serializeB5cxx11Ev',
                                          'Param' => {
                                                       '0' => {
                                                                'name' => 'this',
                                                                'offset' => '4',
                                                                'type' => '26911435'
                                                              }
                                                     },
                                          'Return' => '105481',
                                          'ShortName' => 'serialize',
                                          'Source' => 'FilterState.cpp',
                                          'SourceLine' => '60'
                                        },
                            '105602' => {
                                          'Class' => '105518',
                                          'Header' => 'FilterState.h',
                                          'Line' => '54',
                                          'MnglName' => '_ZN5unity6scopes11FilterState11deserializeERKSt3mapINSt7__cxx1112basic_stringIcSt11char_traitsIcESaIcEEENS0_7VariantESt4lessIS8_ESaISt4pairIKS8_S9_EEE',
                                          'Param' => {
                                                       '0' => {
                                                                'name' => 'var',
                                                                'offset' => '4',
                                                                'type' => '109332'
                                                              }
                                                     },
                                          'Return' => '105518',
                                          'ShortName' => 'deserialize',
                                          'Source' => 'FilterState.cpp',
                                          'SourceLine' => '65',
                                          'Static' => 1
                                        },
                            '105716' => {
                                          'Class' => '105518',
                                          'Header' => 'FilterState.h',
                                          'Line' => '68',
                                          'MnglName' => '_ZN5unity6scopes11FilterStateaSERKS1_',
                                          'Param' => {
                                                       '0' => {
                                                                'name' => 'this',
                                                                'offset' => '0',
                                                                'type' => '26910489'
                                                              },
                                                       '1' => {
                                                                'name' => 'other',
                                                                'offset' => '4',
                                                                'type' => '109625'
                                                              }
                                                     },
                                          'Return' => '109637',
                                          'ShortName' => 'operator=',
                                          'Source' => 'FilterState.cpp',
                                          'SourceLine' => '51'
                                        },
                            '105751' => {
                                          'Class' => '105518',
                                          'Header' => 'FilterState.h',
                                          'Line' => '69',
                                          'MnglName' => '_ZN5unity6scopes11FilterStateaSEOS1_',
                                          'Param' => {
                                                       '0' => {
                                                                'name' => 'this',
                                                                'offset' => '0',
                                                                'type' => '26910489'
                                                              },
                                                       '1' => {
                                                                'name' => 'p1',
                                                                'type' => '26911099'
                                                              }
                                                     },
                                          'Reg' => {
                                                     '1' => 'eax'
                                                   },
                                          'Return' => '109637',
                                          'ShortName' => 'operator='
                                        },
                            '105786' => {
                                          'Class' => '105518',
                                          'Const' => 1,
                                          'Header' => 'FilterState.h',
                                          'Line' => '76',
                                          'MnglName' => '_ZNK5unity6scopes11FilterState10has_filterERKNSt7__cxx1112basic_stringIcSt11char_traitsIcESaIcEEE',
                                          'Param' => {
                                                       '0' => {
                                                                'name' => 'this',
                                                                'offset' => '0',
                                                                'type' => '26911435'
                                                              },
                                                       '1' => {
                                                                'name' => 'id',
                                                                'offset' => '4',
                                                                'type' => '42113'
                                                              }
                                                     },
                                          'Return' => '36673',
                                          'ShortName' => 'has_filter',
                                          'Source' => 'FilterState.cpp',
                                          'SourceLine' => '71'
                                        },
                            '105821' => {
                                          'Class' => '105518',
                                          'Header' => 'FilterState.h',
                                          'Line' => '82',
                                          'MnglName' => '_ZN5unity6scopes11FilterState6removeERKNSt7__cxx1112basic_stringIcSt11char_traitsIcESaIcEEE',
                                          'Param' => {
                                                       '0' => {
                                                                'name' => 'this',
                                                                'offset' => '0',
                                                                'type' => '26910489'
                                                              },
                                                       '1' => {
                                                                'name' => 'id',
                                                                'offset' => '4',
                                                                'type' => '42113'
                                                              }
                                                     },
                                          'Return' => '1',
                                          'ShortName' => 'remove',
                                          'Source' => 'FilterState.cpp',
                                          'SourceLine' => '76'
                                        },
                            '106041' => {
                                          'Class' => '105884',
                                          'Header' => 'CannedQuery.h',
                                          'Line' => '72',
                                          'MnglName' => '_ZN5unity6scopes11CannedQueryaSERKS1_',
                                          'Param' => {
                                                       '0' => {
                                                                'name' => 'this',
                                                                'offset' => '0',
                                                                'type' => '26280652'
                                                              },
                                                       '1' => {
                                                                'name' => 'other',
                                                                'offset' => '4',
                                                                'type' => '109882'
                                                              }
                                                     },
                                          'Return' => '109894',
                                          'ShortName' => 'operator=',
                                          'Source' => 'CannedQuery.cpp',
                                          'SourceLine' => '54'
                                        },
                            '106076' => {
                                          'Class' => '105884',
                                          'Header' => 'CannedQuery.h',
                                          'Line' => '73',
                                          'MnglName' => '_ZN5unity6scopes11CannedQueryaSEOS1_',
                                          'Param' => {
                                                       '0' => {
                                                                'name' => 'this',
                                                                'offset' => '0',
                                                                'type' => '26280652'
                                                              },
                                                       '1' => {
                                                                'name' => 'p1',
                                                                'type' => '10866999'
                                                              }
                                                     },
                                          'Reg' => {
                                                     '1' => 'eax'
                                                   },
                                          'Return' => '109894',
                                          'ShortName' => 'operator='
                                        },
                            '106142' => {
                                          'Class' => '105884',
                                          'Header' => 'CannedQuery.h',
                                          'Line' => '83',
                                          'MnglName' => '_ZN5unity6scopes11CannedQuery17set_department_idERKNSt7__cxx1112basic_stringIcSt11char_traitsIcESaIcEEE',
                                          'Param' => {
                                                       '0' => {
                                                                'name' => 'this',
                                                                'offset' => '0',
                                                                'type' => '26280652'
                                                              },
                                                       '1' => {
                                                                'name' => 'dep_id',
                                                                'offset' => '4',
                                                                'type' => '42113'
                                                              }
                                                     },
                                          'Return' => '1',
                                          'ShortName' => 'set_department_id',
                                          'Source' => 'CannedQuery.cpp',
                                          'SourceLine' => '71'
                                        },
                            '106173' => {
                                          'Class' => '105884',
                                          'Header' => 'CannedQuery.h',
                                          'Line' => '88',
                                          'MnglName' => '_ZN5unity6scopes11CannedQuery16set_query_stringERKNSt7__cxx1112basic_stringIcSt11char_traitsIcESaIcEEE',
                                          'Param' => {
                                                       '0' => {
                                                                'name' => 'this',
                                                                'offset' => '0',
                                                                'type' => '26280652'
                                                              },
                                                       '1' => {
                                                                'name' => 'query_str',
                                                                'offset' => '4',
                                                                'type' => '42113'
                                                              }
                                                     },
                                          'Return' => '1',
                                          'ShortName' => 'set_query_string',
                                          'Source' => 'CannedQuery.cpp',
                                          'SourceLine' => '76'
                                        },
                            '106204' => {
                                          'Class' => '105884',
                                          'Header' => 'CannedQuery.h',
                                          'Line' => '93',
                                          'MnglName' => '_ZN5unity6scopes11CannedQuery16set_filter_stateERKNS0_11FilterStateE',
                                          'Param' => {
                                                       '0' => {
                                                                'name' => 'this',
                                                                'offset' => '0',
                                                                'type' => '26280652'
                                                              },
                                                       '1' => {
                                                                'name' => 'filter_state',
                                                                'offset' => '4',
                                                                'type' => '109625'
                                                              }
                                                     },
                                          'Return' => '1',
                                          'ShortName' => 'set_filter_state',
                                          'Source' => 'CannedQuery.cpp',
                                          'SourceLine' => '81'
                                        },
                            '106235' => {
                                          'Class' => '105884',
                                          'Const' => 1,
                                          'Header' => 'CannedQuery.h',
                                          'Line' => '99',
                                          'MnglName' => '_ZNK5unity6scopes11CannedQuery8scope_idB5cxx11Ev',
                                          'Param' => {
                                                       '0' => {
                                                                'name' => 'this',
                                                                'offset' => '4',
                                                                'type' => '26285853'
                                                              }
                                                     },
                                          'Return' => '6675',
                                          'ShortName' => 'scope_id',
                                          'Source' => 'CannedQuery.cpp',
                                          'SourceLine' => '86'
                                        },
                            '106265' => {
                                          'Class' => '105884',
                                          'Const' => 1,
                                          'Header' => 'CannedQuery.h',
                                          'Line' => '105',
                                          'MnglName' => '_ZNK5unity6scopes11CannedQuery13department_idB5cxx11Ev',
                                          'Param' => {
                                                       '0' => {
                                                                'name' => 'this',
                                                                'offset' => '4',
                                                                'type' => '26285853'
                                                              }
                                                     },
                                          'Return' => '6675',
                                          'ShortName' => 'department_id',
                                          'Source' => 'CannedQuery.cpp',
                                          'SourceLine' => '91'
                                        },
                            '106295' => {
                                          'Class' => '105884',
                                          'Const' => 1,
                                          'Header' => 'CannedQuery.h',
                                          'Line' => '111',
                                          'MnglName' => '_ZNK5unity6scopes11CannedQuery12query_stringB5cxx11Ev',
                                          'Param' => {
                                                       '0' => {
                                                                'name' => 'this',
                                                                'offset' => '4',
                                                                'type' => '26285853'
                                                              }
                                                     },
                                          'Return' => '6675',
                                          'ShortName' => 'query_string',
                                          'Source' => 'CannedQuery.cpp',
                                          'SourceLine' => '96'
                                        },
                            '106325' => {
                                          'Class' => '105884',
                                          'Const' => 1,
                                          'Header' => 'CannedQuery.h',
                                          'Line' => '114',
                                          'MnglName' => '_ZNK5unity6scopes11CannedQuery9serializeB5cxx11Ev',
                                          'Param' => {
                                                       '0' => {
                                                                'name' => 'this',
                                                                'offset' => '4',
                                                                'type' => '26285853'
                                                              }
                                                     },
                                          'Return' => '105481',
                                          'ShortName' => 'serialize',
                                          'Source' => 'CannedQuery.cpp',
                                          'SourceLine' => '65'
                                        },
                            '106355' => {
                                          'Class' => '105884',
                                          'Const' => 1,
                                          'Header' => 'CannedQuery.h',
                                          'Line' => '121',
                                          'MnglName' => '_ZNK5unity6scopes11CannedQuery6to_uriB5cxx11Ev',
                                          'Param' => {
                                                       '0' => {
                                                                'name' => 'this',
                                                                'offset' => '4',
                                                                'type' => '26285853'
                                                              }
                                                     },
                                          'Return' => '6675',
                                          'ShortName' => 'to_uri',
                                          'Source' => 'CannedQuery.cpp',
                                          'SourceLine' => '106'
                                        },
                            '106385' => {
                                          'Class' => '105884',
                                          'Const' => 1,
                                          'Header' => 'CannedQuery.h',
                                          'Line' => '130',
                                          'MnglName' => '_ZNK5unity6scopes11CannedQuery12filter_stateEv',
                                          'Param' => {
                                                       '0' => {
                                                                'name' => 'this',
                                                                'offset' => '4',
                                                                'type' => '26285853'
                                                              }
                                                     },
                                          'Return' => '105518',
                                          'ShortName' => 'filter_state',
                                          'Source' => 'CannedQuery.cpp',
                                          'SourceLine' => '101'
                                        },
                            '106415' => {
                                          'Class' => '105884',
                                          'Header' => 'CannedQuery.h',
                                          'Line' => '138',
                                          'MnglName' => '_ZN5unity6scopes11CannedQuery8from_uriERKNSt7__cxx1112basic_stringIcSt11char_traitsIcESaIcEEE',
                                          'Param' => {
                                                       '0' => {
                                                                'name' => 'uri',
                                                                'offset' => '4',
                                                                'type' => '42113'
                                                              }
                                                     },
                                          'Return' => '105884',
                                          'ShortName' => 'from_uri',
                                          'Source' => 'CannedQuery.cpp',
                                          'SourceLine' => '111',
                                          'Static' => 1
                                        },
                            '106441' => {
                                          'Class' => '105884',
                                          'Header' => 'CannedQuery.h',
                                          'Line' => '145',
                                          'MnglName' => '_ZN5unity6scopes11CannedQuery13set_user_dataERKNS0_7VariantE',
                                          'Param' => {
                                                       '0' => {
                                                                'name' => 'this',
                                                                'offset' => '0',
                                                                'type' => '26280652'
                                                              },
                                                       '1' => {
                                                                'name' => 'value',
                                                                'offset' => '4',
                                                                'type' => '109344'
                                                              }
                                                     },
                                          'Return' => '1',
                                          'ShortName' => 'set_user_data',
                                          'Source' => 'CannedQuery.cpp',
                                          'SourceLine' => '116'
                                        },
                            '106472' => {
                                          'Class' => '105884',
                                          'Const' => 1,
                                          'Header' => 'CannedQuery.h',
                                          'Line' => '152',
                                          'MnglName' => '_ZNK5unity6scopes11CannedQuery13has_user_dataEv',
                                          'Param' => {
                                                       '0' => {
                                                                'name' => 'this',
                                                                'offset' => '0',
                                                                'type' => '26285853'
                                                              }
                                                     },
                                          'Return' => '36673',
                                          'ShortName' => 'has_user_data',
                                          'Source' => 'CannedQuery.cpp',
                                          'SourceLine' => '121'
                                        },
                            '106502' => {
                                          'Class' => '105884',
                                          'Const' => 1,
                                          'Header' => 'CannedQuery.h',
                                          'Line' => '160',
                                          'MnglName' => '_ZNK5unity6scopes11CannedQuery9user_dataEv',
                                          'Param' => {
                                                       '0' => {
                                                                'name' => 'this',
                                                                'offset' => '4',
                                                                'type' => '26285853'
                                                              }
                                                     },
                                          'Return' => '104143',
                                          'ShortName' => 'user_data',
                                          'Source' => 'CannedQuery.cpp',
                                          'SourceLine' => '126'
                                        },
                            '106611' => {
                                          'Class' => '106564',
                                          'Header' => 'Department.h',
                                          'Line' => '64',
                                          'MnglName' => '_ZN5unity6scopes10Department6createERKNS0_11CannedQueryERKNSt7__cxx1112basic_stringIcSt11char_traitsIcESaIcEEE',
                                          'Param' => {
                                                       '0' => {
                                                                'name' => 'query',
                                                                'offset' => '4',
                                                                'type' => '109882'
                                                              },
                                                       '1' => {
                                                                'name' => 'label',
                                                                'offset' => '8',
                                                                'type' => '42113'
                                                              }
                                                     },
                                          'Return' => '106599',
                                          'ShortName' => 'create',
                                          'Source' => 'Department.cpp',
                                          'SourceLine' => '55',
                                          'Static' => 1
                                        },
                            '106642' => {
                                          'Class' => '106564',
                                          'Header' => 'Department.h',
                                          'Line' => '77',
                                          'MnglName' => '_ZN5unity6scopes10Department6createERKNSt7__cxx1112basic_stringIcSt11char_traitsIcESaIcEEERKNS0_11CannedQueryES9_',
                                          'Param' => {
                                                       '0' => {
                                                                'name' => 'department_id',
                                                                'offset' => '4',
                                                                'type' => '42113'
                                                              },
                                                       '1' => {
                                                                'name' => 'query',
                                                                'offset' => '8',
                                                                'type' => '109882'
                                                              },
                                                       '2' => {
                                                                'name' => 'label',
                                                                'offset' => '12',
                                                                'type' => '42113'
                                                              }
                                                     },
                                          'Return' => '106599',
                                          'ShortName' => 'create',
                                          'Source' => 'Department.cpp',
                                          'SourceLine' => '60',
                                          'Static' => 1
                                        },
                            '106740' => {
                                          'Class' => '106564',
                                          'Header' => 'Department.h',
                                          'Line' => '85',
                                          'MnglName' => '_ZN5unity6scopes10DepartmentaSERKS1_',
                                          'Param' => {
                                                       '0' => {
                                                                'name' => 'this',
                                                                'offset' => '0',
                                                                'type' => '690077'
                                                              },
                                                       '1' => {
                                                                'name' => 'other',
                                                                'offset' => '4',
                                                                'type' => '110145'
                                                              }
                                                     },
                                          'Return' => '110157',
                                          'ShortName' => 'operator=',
                                          'Source' => 'Department.cpp',
                                          'SourceLine' => '44'
                                        },
                            '106775' => {
                                          'Class' => '106564',
                                          'Header' => 'Department.h',
                                          'Line' => '86',
                                          'MnglName' => '_ZN5unity6scopes10DepartmentaSEOS1_',
                                          'Param' => {
                                                       '0' => {
                                                                'name' => 'this',
                                                                'offset' => '0',
                                                                'type' => '690077'
                                                              },
                                                       '1' => {
                                                                'name' => 'p1',
                                                                'type' => '26759373'
                                                              }
                                                     },
                                          'Reg' => {
                                                     '1' => 'eax'
                                                   },
                                          'Return' => '110157',
                                          'ShortName' => 'operator='
                                        },
                            '106841' => {
                                          'Class' => '106564',
                                          'Header' => 'Department.h',
                                          'Line' => '97',
                                          'MnglName' => '_ZN5unity6scopes10Department18set_subdepartmentsERKNSt7__cxx114listISt10shared_ptrIKS1_ESaIS6_EEE',
                                          'Param' => {
                                                       '0' => {
                                                                'name' => 'this',
                                                                'offset' => '0',
                                                                'type' => '690077'
                                                              },
                                                       '1' => {
                                                                'name' => 'departments',
                                                                'offset' => '4',
                                                                'type' => '110163'
                                                              }
                                                     },
                                          'Return' => '1',
                                          'ShortName' => 'set_subdepartments',
                                          'Source' => 'Department.cpp',
                                          'SourceLine' => '77'
                                        },
                            '106872' => {
                                          'Class' => '106564',
                                          'Header' => 'Department.h',
                                          'Line' => '103',
                                          'MnglName' => '_ZN5unity6scopes10Department17add_subdepartmentERKSt10shared_ptrIKS1_E',
                                          'Param' => {
                                                       '0' => {
                                                                'name' => 'this',
                                                                'offset' => '0',
                                                                'type' => '690077'
                                                              },
                                                       '1' => {
                                                                'name' => 'department',
                                                                'offset' => '4',
                                                                'type' => '110169'
                                                              }
                                                     },
                                          'Return' => '1',
                                          'ShortName' => 'add_subdepartment',
                                          'Source' => 'Department.cpp',
                                          'SourceLine' => '82'
                                        },
                            '106908' => {
                                          'Class' => '106564',
                                          'Header' => 'Department.h',
                                          'Line' => '113',
                                          'MnglName' => '_ZN5unity6scopes10Department19set_alternate_labelERKNSt7__cxx1112basic_stringIcSt11char_traitsIcESaIcEEE',
                                          'Param' => {
                                                       '0' => {
                                                                'name' => 'this',
                                                                'offset' => '0',
                                                                'type' => '690077'
                                                              },
                                                       '1' => {
                                                                'name' => 'label',
                                                                'offset' => '4',
                                                                'type' => '42113'
                                                              }
                                                     },
                                          'Return' => '1',
                                          'ShortName' => 'set_alternate_label',
                                          'Source' => 'Department.cpp',
                                          'SourceLine' => '87'
                                        },
                            '106939' => {
                                          'Class' => '106564',
                                          'Header' => 'Department.h',
                                          'Line' => '125',
                                          'MnglName' => '_ZN5unity6scopes10Department22set_has_subdepartmentsEb',
                                          'Param' => {
                                                       '0' => {
                                                                'name' => 'this',
                                                                'offset' => '0',
                                                                'type' => '690077'
                                                              },
                                                       '1' => {
                                                                'name' => 'subdepartments',
                                                                'offset' => '4',
                                                                'type' => '36673'
                                                              }
                                                     },
                                          'Return' => '1',
                                          'ShortName' => 'set_has_subdepartments',
                                          'Source' => 'Department.cpp',
                                          'SourceLine' => '72'
                                        },
                            '106970' => {
                                          'Class' => '106564',
                                          'Const' => 1,
                                          'Header' => 'Department.h',
                                          'Line' => '131',
                                          'MnglName' => '_ZNK5unity6scopes10Department2idB5cxx11Ev',
                                          'Param' => {
                                                       '0' => {
                                                                'name' => 'this',
                                                                'offset' => '4',
                                                                'type' => '26760313'
                                                              }
                                                     },
                                          'Return' => '6675',
                                          'ShortName' => 'id',
                                          'Source' => 'Department.cpp',
                                          'SourceLine' => '92'
                                        },
                            '106999' => {
                                          'Class' => '106564',
                                          'Const' => 1,
                                          'Header' => 'Department.h',
                                          'Line' => '137',
                                          'MnglName' => '_ZNK5unity6scopes10Department5labelB5cxx11Ev',
                                          'Param' => {
                                                       '0' => {
                                                                'name' => 'this',
                                                                'offset' => '4',
                                                                'type' => '26760313'
                                                              }
                                                     },
                                          'Return' => '6675',
                                          'ShortName' => 'label',
                                          'Source' => 'Department.cpp',
                                          'SourceLine' => '97'
                                        },
                            '107029' => {
                                          'Class' => '106564',
                                          'Const' => 1,
                                          'Header' => 'Department.h',
                                          'Line' => '148',
                                          'MnglName' => '_ZNK5unity6scopes10Department15alternate_labelB5cxx11Ev',
                                          'Param' => {
                                                       '0' => {
                                                                'name' => 'this',
                                                                'offset' => '4',
                                                                'type' => '26760313'
                                                              }
                                                     },
                                          'Return' => '6675',
                                          'ShortName' => 'alternate_label',
                                          'Source' => 'Department.cpp',
                                          'SourceLine' => '102'
                                        },
                            '107059' => {
                                          'Class' => '106564',
                                          'Const' => 1,
                                          'Header' => 'Department.h',
                                          'Line' => '154',
                                          'MnglName' => '_ZNK5unity6scopes10Department5queryEv',
                                          'Param' => {
                                                       '0' => {
                                                                'name' => 'this',
                                                                'offset' => '4',
                                                                'type' => '26760313'
                                                              }
                                                     },
                                          'Return' => '105884',
                                          'ShortName' => 'query',
                                          'Source' => 'Department.cpp',
                                          'SourceLine' => '107'
                                        },
                            '107089' => {
                                          'Class' => '106564',
                                          'Const' => 1,
                                          'Header' => 'Department.h',
                                          'Line' => '160',
                                          'MnglName' => '_ZNK5unity6scopes10Department14subdepartmentsB5cxx11Ev',
                                          'Param' => {
                                                       '0' => {
                                                                'name' => 'this',
                                                                'offset' => '4',
                                                                'type' => '26760313'
                                                              }
                                                     },
                                          'Return' => '107211',
                                          'ShortName' => 'subdepartments',
                                          'Source' => 'Department.cpp',
                                          'SourceLine' => '117'
                                        },
                            '107119' => {
                                          'Class' => '106564',
                                          'Const' => 1,
                                          'Header' => 'Department.h',
                                          'Line' => '166',
                                          'MnglName' => '_ZNK5unity6scopes10Department18has_subdepartmentsEv',
                                          'Param' => {
                                                       '0' => {
                                                                'name' => 'this',
                                                                'offset' => '0',
                                                                'type' => '26760313'
                                                              }
                                                     },
                                          'Return' => '36673',
                                          'ShortName' => 'has_subdepartments',
                                          'Source' => 'Department.cpp',
                                          'SourceLine' => '112'
                                        },
                            '107149' => {
                                          'Class' => '106564',
                                          'Const' => 1,
                                          'Header' => 'Department.h',
                                          'Line' => '169',
                                          'MnglName' => '_ZNK5unity6scopes10Department9serializeB5cxx11Ev',
                                          'Param' => {
                                                       '0' => {
                                                                'name' => 'this',
                                                                'offset' => '4',
                                                                'type' => '26760313'
                                                              }
                                                     },
                                          'Return' => '105481',
                                          'ShortName' => 'serialize',
                                          'Source' => 'Department.cpp',
                                          'SourceLine' => '65'
                                        },
                            '10984966' => {
                                            'Class' => '10984881',
                                            'Header' => 'Link.h',
                                            'Line' => '54',
                                            'MnglName' => '_ZN5unity6scopes4LinkaSERKS1_',
                                            'Param' => {
                                                         '0' => {
                                                                  'name' => 'this',
                                                                  'offset' => '0',
                                                                  'type' => '26966613'
                                                                },
                                                         '1' => {
                                                                  'name' => 'other',
                                                                  'offset' => '4',
                                                                  'type' => '10986315'
                                                                }
                                                       },
                                            'Return' => '10986327',
                                            'ShortName' => 'operator=',
                                            'Source' => 'Link.cpp',
                                            'SourceLine' => '47'
                                          },
                            '10985067' => {
                                            'Class' => '10984881',
                                            'Const' => 1,
                                            'Header' => 'Link.h',
                                            'Line' => '66',
                                            'MnglName' => '_ZNK5unity6scopes4Link5labelB5cxx11Ev',
                                            'Param' => {
                                                         '0' => {
                                                                  'name' => 'this',
                                                                  'offset' => '4',
                                                                  'type' => '26972141'
                                                                }
                                                       },
                                            'Return' => '6675',
                                            'ShortName' => 'label',
                                            'Source' => 'Link.cpp',
                                            'SourceLine' => '64'
                                          },
                            '10985097' => {
                                            'Class' => '10984881',
                                            'Const' => 1,
                                            'Header' => 'Link.h',
                                            'Line' => '72',
                                            'MnglName' => '_ZNK5unity6scopes4Link5queryEv',
                                            'Param' => {
                                                         '0' => {
                                                                  'name' => 'this',
                                                                  'offset' => '4',
                                                                  'type' => '26972141'
                                                                }
                                                       },
                                            'Return' => '105884',
                                            'ShortName' => 'query',
                                            'Source' => 'Link.cpp',
                                            'SourceLine' => '69'
                                          },
                            '10985127' => {
                                            'Class' => '10984881',
                                            'Const' => 1,
                                            'Header' => 'Link.h',
                                            'Line' => '75',
                                            'MnglName' => '_ZNK5unity6scopes4Link9serializeB5cxx11Ev',
                                            'Param' => {
                                                         '0' => {
                                                                  'name' => 'this',
                                                                  'offset' => '4',
                                                                  'type' => '26972141'
                                                                }
                                                       },
                                            'Return' => '105481',
                                            'ShortName' => 'serialize',
                                            'Source' => 'Link.cpp',
                                            'SourceLine' => '58'
                                          },
                            '12141653' => {
                                            'Class' => '12141534',
                                            'Header' => 'DateTimePickerFilter.h',
                                            'Line' => '83',
                                            'MnglName' => '_ZN5unity6scopes12experimental20DateTimePickerFilter6createERKNSt7__cxx1112basic_stringIcSt11char_traitsIcESaIcEEESt6bitsetILj6EE',
                                            'Param' => {
                                                         '0' => {
                                                                  'name' => 'id',
                                                                  'offset' => '4',
                                                                  'type' => '42113'
                                                                },
                                                         '1' => {
                                                                  'name' => 'mode',
                                                                  'offset' => '8',
                                                                  'type' => '12141550'
                                                                }
                                                       },
                                            'Return' => '12141581',
                                            'ShortName' => 'create',
                                            'Source' => 'DateTimePickerFilter.cpp',
                                            'SourceLine' => '36',
                                            'Static' => 1
                                          },
                            '12141684' => {
                                            'Class' => '12141534',
                                            'Header' => 'DateTimePickerFilter.h',
                                            'Line' => '91',
                                            'MnglName' => '_ZN5unity6scopes12experimental20DateTimePickerFilter14set_time_labelERKNSt7__cxx1112basic_stringIcSt11char_traitsIcESaIcEEE',
                                            'Param' => {
                                                         '0' => {
                                                                  'name' => 'this',
                                                                  'offset' => '0',
                                                                  'type' => '12149772'
                                                                },
                                                         '1' => {
                                                                  'name' => 'label',
                                                                  'offset' => '4',
                                                                  'type' => '42113'
                                                                }
                                                       },
                                            'Return' => '1',
                                            'ShortName' => 'set_time_label',
                                            'Source' => 'DateTimePickerFilter.cpp',
                                            'SourceLine' => '41'
                                          },
                            '12141715' => {
                                            'Class' => '12141534',
                                            'Header' => 'DateTimePickerFilter.h',
                                            'Line' => '99',
                                            'MnglName' => '_ZN5unity6scopes12experimental20DateTimePickerFilter14set_date_labelERKNSt7__cxx1112basic_stringIcSt11char_traitsIcESaIcEEE',
                                            'Param' => {
                                                         '0' => {
                                                                  'name' => 'this',
                                                                  'offset' => '0',
                                                                  'type' => '12149772'
                                                                },
                                                         '1' => {
                                                                  'name' => 'label',
                                                                  'offset' => '4',
                                                                  'type' => '42113'
                                                                }
                                                       },
                                            'Return' => '1',
                                            'ShortName' => 'set_date_label',
                                            'Source' => 'DateTimePickerFilter.cpp',
                                            'SourceLine' => '46'
                                          },
                            '12141746' => {
                                            'Class' => '12141534',
                                            'Header' => 'DateTimePickerFilter.h',
                                            'Line' => '107',
                                            'MnglName' => '_ZN5unity6scopes12experimental20DateTimePickerFilter11set_minimumERKNSt6chrono10time_pointINS3_3_V212system_clockENS3_8durationIxSt5ratioILx1ELx1000000000EEEEEE',
                                            'Param' => {
                                                         '0' => {
                                                                  'name' => 'this',
                                                                  'offset' => '0',
                                                                  'type' => '12149772'
                                                                },
                                                         '1' => {
                                                                  'name' => 'date',
                                                                  'offset' => '4',
                                                                  'type' => '2341440'
                                                                }
                                                       },
                                            'Return' => '1',
                                            'ShortName' => 'set_minimum',
                                            'Source' => 'DateTimePickerFilter.cpp',
                                            'SourceLine' => '56'
                                          },
                            '12141777' => {
                                            'Class' => '12141534',
                                            'Header' => 'DateTimePickerFilter.h',
                                            'Line' => '115',
                                            'MnglName' => '_ZN5unity6scopes12experimental20DateTimePickerFilter11set_maximumERKNSt6chrono10time_pointINS3_3_V212system_clockENS3_8durationIxSt5ratioILx1ELx1000000000EEEEEE',
                                            'Param' => {
                                                         '0' => {
                                                                  'name' => 'this',
                                                                  'offset' => '0',
                                                                  'type' => '12149772'
                                                                },
                                                         '1' => {
                                                                  'name' => 'date',
                                                                  'offset' => '4',
                                                                  'type' => '2341440'
                                                                }
                                                       },
                                            'Return' => '1',
                                            'ShortName' => 'set_maximum',
                                            'Source' => 'DateTimePickerFilter.cpp',
                                            'SourceLine' => '51'
                                          },
                            '12141808' => {
                                            'Class' => '12141534',
                                            'Const' => 1,
                                            'Header' => 'DateTimePickerFilter.h',
                                            'Line' => '122',
                                            'MnglName' => '_ZNK5unity6scopes12experimental20DateTimePickerFilter10time_labelB5cxx11Ev',
                                            'Param' => {
                                                         '0' => {
                                                                  'name' => 'this',
                                                                  'offset' => '4',
                                                                  'type' => '26799692'
                                                                }
                                                       },
                                            'Return' => '6675',
                                            'ShortName' => 'time_label',
                                            'Source' => 'DateTimePickerFilter.cpp',
                                            'SourceLine' => '61'
                                          },
                            '12141838' => {
                                            'Class' => '12141534',
                                            'Const' => 1,
                                            'Header' => 'DateTimePickerFilter.h',
                                            'Line' => '129',
                                            'MnglName' => '_ZNK5unity6scopes12experimental20DateTimePickerFilter10date_labelB5cxx11Ev',
                                            'Param' => {
                                                         '0' => {
                                                                  'name' => 'this',
                                                                  'offset' => '4',
                                                                  'type' => '26799692'
                                                                }
                                                       },
                                            'Return' => '6675',
                                            'ShortName' => 'date_label',
                                            'Source' => 'DateTimePickerFilter.cpp',
                                            'SourceLine' => '66'
                                          },
                            '12141868' => {
                                            'Class' => '12141534',
                                            'Const' => 1,
                                            'Header' => 'DateTimePickerFilter.h',
                                            'Line' => '136',
                                            'MnglName' => '_ZNK5unity6scopes12experimental20DateTimePickerFilter4modeEv',
                                            'Param' => {
                                                         '0' => {
                                                                  'name' => 'this',
                                                                  'offset' => '4',
                                                                  'type' => '26799692'
                                                                }
                                                       },
                                            'Return' => '12141550',
                                            'ShortName' => 'mode',
                                            'Source' => 'DateTimePickerFilter.cpp',
                                            'SourceLine' => '71'
                                          },
                            '12141898' => {
                                            'Class' => '12141534',
                                            'Const' => 1,
                                            'Header' => 'DateTimePickerFilter.h',
                                            'Line' => '143',
                                            'MnglName' => '_ZNK5unity6scopes12experimental20DateTimePickerFilter11has_minimumEv',
                                            'Param' => {
                                                         '0' => {
                                                                  'name' => 'this',
                                                                  'offset' => '0',
                                                                  'type' => '26799692'
                                                                }
                                                       },
                                            'Return' => '36673',
                                            'ShortName' => 'has_minimum',
                                            'Source' => 'DateTimePickerFilter.cpp',
                                            'SourceLine' => '76'
                                          },
                            '12141928' => {
                                            'Class' => '12141534',
                                            'Const' => 1,
                                            'Header' => 'DateTimePickerFilter.h',
                                            'Line' => '150',
                                            'MnglName' => '_ZNK5unity6scopes12experimental20DateTimePickerFilter11has_maximumEv',
                                            'Param' => {
                                                         '0' => {
                                                                  'name' => 'this',
                                                                  'offset' => '0',
                                                                  'type' => '26799692'
                                                                }
                                                       },
                                            'Return' => '36673',
                                            'ShortName' => 'has_maximum',
                                            'Source' => 'DateTimePickerFilter.cpp',
                                            'SourceLine' => '81'
                                          },
                            '12141958' => {
                                            'Class' => '12141534',
                                            'Const' => 1,
                                            'Header' => 'DateTimePickerFilter.h',
                                            'Line' => '158',
                                            'MnglName' => '_ZNK5unity6scopes12experimental20DateTimePickerFilter7minimumEv',
                                            'Param' => {
                                                         '0' => {
                                                                  'name' => 'this',
                                                                  'offset' => '4',
                                                                  'type' => '26799692'
                                                                }
                                                       },
                                            'Return' => '2084705',
                                            'ShortName' => 'minimum',
                                            'Source' => 'DateTimePickerFilter.cpp',
                                            'SourceLine' => '86'
                                          },
                            '12141988' => {
                                            'Class' => '12141534',
                                            'Const' => 1,
                                            'Header' => 'DateTimePickerFilter.h',
                                            'Line' => '166',
                                            'MnglName' => '_ZNK5unity6scopes12experimental20DateTimePickerFilter7maximumEv',
                                            'Param' => {
                                                         '0' => {
                                                                  'name' => 'this',
                                                                  'offset' => '4',
                                                                  'type' => '26799692'
                                                                }
                                                       },
                                            'Return' => '2084705',
                                            'ShortName' => 'maximum',
                                            'Source' => 'DateTimePickerFilter.cpp',
                                            'SourceLine' => '91'
                                          },
                            '12142018' => {
                                            'Class' => '12141534',
                                            'Const' => 1,
                                            'Header' => 'DateTimePickerFilter.h',
                                            'Line' => '173',
                                            'MnglName' => '_ZNK5unity6scopes12experimental20DateTimePickerFilter17has_selected_dateERKNS0_11FilterStateE',
                                            'Param' => {
                                                         '0' => {
                                                                  'name' => 'this',
                                                                  'offset' => '0',
                                                                  'type' => '26799692'
                                                                },
                                                         '1' => {
                                                                  'name' => 'filter_state',
                                                                  'offset' => '4',
                                                                  'type' => '109625'
                                                                }
                                                       },
                                            'Return' => '36673',
                                            'ShortName' => 'has_selected_date',
                                            'Source' => 'DateTimePickerFilter.cpp',
                                            'SourceLine' => '96'
                                          },
                            '12142053' => {
                                            'Class' => '12141534',
                                            'Const' => 1,
                                            'Header' => 'DateTimePickerFilter.h',
                                            'Line' => '182',
                                            'MnglName' => '_ZNK5unity6scopes12experimental20DateTimePickerFilter13selected_dateERKNS0_11FilterStateE',
                                            'Param' => {
                                                         '0' => {
                                                                  'name' => 'this',
                                                                  'offset' => '4',
                                                                  'type' => '26799692'
                                                                },
                                                         '1' => {
                                                                  'name' => 'filter_state',
                                                                  'offset' => '8',
                                                                  'type' => '109625'
                                                                }
                                                       },
                                            'Return' => '2084705',
                                            'ShortName' => 'selected_date',
                                            'Source' => 'DateTimePickerFilter.cpp',
                                            'SourceLine' => '101'
                                          },
                            '12142088' => {
                                            'Class' => '12141534',
                                            'Const' => 1,
                                            'Header' => 'DateTimePickerFilter.h',
                                            'Line' => '189',
                                            'MnglName' => '_ZNK5unity6scopes12experimental20DateTimePickerFilter12update_stateERNS0_11FilterStateERKNSt6chrono10time_pointINS5_3_V212system_clockENS5_8durationIxSt5ratioILx1ELx1000000000EEEEEE',
                                            'Param' => {
                                                         '0' => {
                                                                  'name' => 'this',
                                                                  'offset' => '0',
                                                                  'type' => '26799692'
                                                                },
                                                         '1' => {
                                                                  'name' => 'filter_state',
                                                                  'offset' => '4',
                                                                  'type' => '109637'
                                                                },
                                                         '2' => {
                                                                  'name' => 'date',
                                                                  'offset' => '8',
                                                                  'type' => '2341440'
                                                                }
                                                       },
                                            'Return' => '1',
                                            'ShortName' => 'update_state',
                                            'Source' => 'DateTimePickerFilter.cpp',
                                            'SourceLine' => '106'
                                          },
                            '12142124' => {
                                            'Class' => '12141534',
                                            'Header' => 'DateTimePickerFilter.h',
                                            'Line' => '199',
                                            'MnglName' => '_ZN5unity6scopes12experimental20DateTimePickerFilter12update_stateERNS0_11FilterStateERKNSt7__cxx1112basic_stringIcSt11char_traitsIcESaIcEEERKNSt6chrono10time_pointINSD_3_V212system_clockENSD_8durationIxSt5ratioILx1ELx1000000000EEEEEE',
                                            'Param' => {
                                                         '0' => {
                                                                  'name' => 'filter_state',
                                                                  'offset' => '0',
                                                                  'type' => '109637'
                                                                },
                                                         '1' => {
                                                                  'name' => 'filter_id',
                                                                  'offset' => '4',
                                                                  'type' => '42113'
                                                                },
                                                         '2' => {
                                                                  'name' => 'date',
                                                                  'offset' => '8',
                                                                  'type' => '2341440'
                                                                }
                                                       },
                                            'Return' => '1',
                                            'ShortName' => 'update_state',
                                            'Source' => 'DateTimePickerFilter.cpp',
                                            'SourceLine' => '111',
                                            'Static' => 1
                                          },
                            '12142186' => {
                                            'Class' => '12141534',
                                            'Const' => 1,
                                            'Header' => 'DateTimePickerFilter.h',
                                            'Line' => '203',
                                            'MnglName' => '_ZNK5unity6scopes12experimental20DateTimePickerFilter3fwdEv',
                                            'Param' => {
                                                         '0' => {
                                                                  'name' => 'this',
                                                                  'offset' => '0',
                                                                  'type' => '26799692'
                                                                }
                                                       },
                                            'Private' => 1,
                                            'Return' => '12149178',
                                            'ShortName' => 'fwd',
                                            'Source' => 'DateTimePickerFilter.cpp',
                                            'SourceLine' => '116'
                                          },
                            '12162161' => {
                                            'Class' => '12141534',
                                            'Destructor' => 1,
                                            'Header' => 'DateTimePickerFilter.h',
                                            'Line' => '47',
                                            'MnglName' => '_ZN5unity6scopes12experimental20DateTimePickerFilterD2Ev',
                                            'Param' => {
                                                         '0' => {
                                                                  'name' => 'this',
                                                                  'offset' => '0',
                                                                  'type' => '12149772'
                                                                }
                                                       },
                                            'ShortName' => 'DateTimePickerFilter',
                                            'Virt' => 1
                                          },
                            '12162162' => {
                                            'Class' => '12141534',
                                            'Destructor' => 1,
                                            'Header' => 'DateTimePickerFilter.h',
                                            'Line' => '47',
                                            'MnglName' => '_ZN5unity6scopes12experimental20DateTimePickerFilterD1Ev',
                                            'Param' => {
                                                         '0' => {
                                                                  'name' => 'this',
                                                                  'offset' => '0',
                                                                  'type' => '12149772'
                                                                }
                                                       },
                                            'ShortName' => 'DateTimePickerFilter',
                                            'Virt' => 1
                                          },
                            '12162205' => {
                                            'Class' => '12141534',
                                            'Destructor' => 1,
                                            'Header' => 'DateTimePickerFilter.h',
                                            'Line' => '47',
                                            'MnglName' => '_ZN5unity6scopes12experimental20DateTimePickerFilterD0Ev',
                                            'Param' => {
                                                         '0' => {
                                                                  'name' => 'this',
                                                                  'offset' => '0',
                                                                  'type' => '12149772'
                                                                }
                                                       },
                                            'ShortName' => 'DateTimePickerFilter',
                                            'Virt' => 1
                                          },
                            '12162206' => {
                                            'Class' => '12141534',
                                            'Destructor' => 1,
                                            'Header' => 'DateTimePickerFilter.h',
                                            'Line' => '47',
                                            'MnglName' => '_ZN5unity6scopes12experimental20DateTimePickerFilterD1Ev',
                                            'Param' => {
                                                         '0' => {
                                                                  'name' => 'this',
                                                                  'offset' => '0',
                                                                  'type' => '12149772'
                                                                }
                                                       },
                                            'ShortName' => 'DateTimePickerFilter',
                                            'Virt' => 1
                                          },
                            '12560271' => {
                                            'Class' => '12560180',
                                            'Const' => 1,
                                            'Header' => 'FilterOption.h',
                                            'Line' => '53',
                                            'MnglName' => '_ZNK5unity6scopes12FilterOption2idB5cxx11Ev',
                                            'Param' => {
                                                         '0' => {
                                                                  'name' => 'this',
                                                                  'offset' => '4',
                                                                  'type' => '15420491'
                                                                }
                                                       },
                                            'Return' => '6675',
                                            'ShortName' => 'id',
                                            'Source' => 'FilterOption.cpp',
                                            'SourceLine' => '37'
                                          },
                            '12560300' => {
                                            'Class' => '12560180',
                                            'Const' => 1,
                                            'Header' => 'FilterOption.h',
                                            'Line' => '59',
                                            'MnglName' => '_ZNK5unity6scopes12FilterOption5labelB5cxx11Ev',
                                            'Param' => {
                                                         '0' => {
                                                                  'name' => 'this',
                                                                  'offset' => '4',
                                                                  'type' => '15420491'
                                                                }
                                                       },
                                            'Return' => '6675',
                                            'ShortName' => 'label',
                                            'Source' => 'FilterOption.cpp',
                                            'SourceLine' => '42'
                                          },
                            '15106236' => {
                                            'Class' => '15105765',
                                            'Header' => 'OnlineAccountClient.h',
                                            'Line' => '111',
                                            'MnglName' => '_ZN5unity6scopes19OnlineAccountClient27set_service_update_callbackESt8functionIFvRKNS1_13ServiceStatusEEE',
                                            'Param' => {
                                                         '0' => {
                                                                  'name' => 'this',
                                                                  'offset' => '0',
                                                                  'type' => '27140085'
                                                                },
                                                         '1' => {
                                                                  'name' => 'callback',
                                                                  'offset' => '4',
                                                                  'type' => '15106081'
                                                                }
                                                       },
                                            'Return' => '1',
                                            'ShortName' => 'set_service_update_callback',
                                            'Source' => 'OnlineAccountClient.cpp',
                                            'SourceLine' => '40'
                                          },
                            '15106267' => {
                                            'Class' => '15105765',
                                            'Header' => 'OnlineAccountClient.h',
                                            'Line' => '119',
                                            'MnglName' => '_ZN5unity6scopes19OnlineAccountClient24refresh_service_statusesEv',
                                            'Param' => {
                                                         '0' => {
                                                                  'name' => 'this',
                                                                  'offset' => '0',
                                                                  'type' => '27140085'
                                                                }
                                                       },
                                            'Return' => '1',
                                            'ShortName' => 'refresh_service_statuses',
                                            'Source' => 'OnlineAccountClient.cpp',
                                            'SourceLine' => '45'
                                          },
                            '15106293' => {
                                            'Class' => '15105765',
                                            'Header' => 'OnlineAccountClient.h',
                                            'Line' => '126',
                                            'MnglName' => '_ZN5unity6scopes19OnlineAccountClient20get_service_statusesEv',
                                            'Param' => {
                                                         '0' => {
                                                                  'name' => 'this',
                                                                  'offset' => '4',
                                                                  'type' => '27140085'
                                                                }
                                                       },
                                            'Return' => '14981386',
                                            'ShortName' => 'get_service_statuses',
                                            'Source' => 'OnlineAccountClient.cpp',
                                            'SourceLine' => '50'
                                          },
                            '15106323' => {
                                            'Class' => '15105765',
                                            'Header' => 'OnlineAccountClient.h',
                                            'Line' => '147',
                                            'MnglName' => '_ZN5unity6scopes19OnlineAccountClient27register_account_login_itemERNS0_6ResultERKNS0_11CannedQueryENS1_15PostLoginActionES7_',
                                            'Param' => {
                                                         '0' => {
                                                                  'name' => 'this',
                                                                  'offset' => '0',
                                                                  'type' => '27140085'
                                                                },
                                                         '1' => {
                                                                  'name' => 'result',
                                                                  'offset' => '4',
                                                                  'type' => '10562621'
                                                                },
                                                         '2' => {
                                                                  'name' => 'query',
                                                                  'offset' => '8',
                                                                  'type' => '109882'
                                                                },
                                                         '3' => {
                                                                  'name' => 'login_passed_action',
                                                                  'offset' => '12',
                                                                  'type' => '15106021'
                                                                },
                                                         '4' => {
                                                                  'name' => 'login_failed_action',
                                                                  'offset' => '16',
                                                                  'type' => '15106021'
                                                                }
                                                       },
                                            'Return' => '1',
                                            'ShortName' => 'register_account_login_item',
                                            'Source' => 'OnlineAccountClient.cpp',
                                            'SourceLine' => '55'
                                          },
                            '15106369' => {
                                            'Class' => '15105765',
                                            'Header' => 'OnlineAccountClient.h',
                                            'Line' => '158',
                                            'MnglName' => '_ZN5unity6scopes19OnlineAccountClient27register_account_login_itemERNS0_13PreviewWidgetENS1_15PostLoginActionES4_',
                                            'Param' => {
                                                         '0' => {
                                                                  'name' => 'this',
                                                                  'offset' => '0',
                                                                  'type' => '27140085'
                                                                },
                                                         '1' => {
                                                                  'name' => 'widget',
                                                                  'offset' => '4',
                                                                  'type' => '690857'
                                                                },
                                                         '2' => {
                                                                  'name' => 'login_passed_action',
                                                                  'offset' => '8',
                                                                  'type' => '15106021'
                                                                },
                                                         '3' => {
                                                                  'name' => 'login_failed_action',
                                                                  'offset' => '12',
                                                                  'type' => '15106021'
                                                                }
                                                       },
                                            'Return' => '1',
                                            'ShortName' => 'register_account_login_item',
                                            'Source' => 'OnlineAccountClient.cpp',
                                            'SourceLine' => '63'
                                          },
                            '15177608' => {
                                            'Artificial' => 1,
                                            'Class' => '15105777',
                                            'Destructor' => 1,
                                            'Header' => 'OnlineAccountClient.h',
                                            'InLine' => 1,
                                            'Line' => '60',
                                            'MnglName' => '_ZN5unity6scopes19OnlineAccountClient13ServiceStatusD2Ev',
                                            'Param' => {
                                                         '0' => {
                                                                  'name' => 'this',
                                                                  'offset' => '0',
                                                                  'type' => '15112393'
                                                                }
                                                       },
                                            'ShortName' => 'ServiceStatus'
                                          },
                            '15177609' => {
                                            'Artificial' => 1,
                                            'Class' => '15105777',
                                            'Destructor' => 1,
                                            'Header' => 'OnlineAccountClient.h',
                                            'InLine' => 1,
                                            'Line' => '60',
                                            'MnglName' => '_ZN5unity6scopes19OnlineAccountClient13ServiceStatusD0Ev',
                                            'Param' => {
                                                         '0' => {
                                                                  'name' => 'this',
                                                                  'offset' => '0',
                                                                  'type' => '15112393'
                                                                }
                                                       },
                                            'ShortName' => 'ServiceStatus'
                                          },
                            '15415693' => {
                                            'Class' => '12560521',
                                            'Header' => 'OptionSelectorFilter.h',
                                            'Line' => '59',
                                            'MnglName' => '_ZN5unity6scopes20OptionSelectorFilter6createERKNSt7__cxx1112basic_stringIcSt11char_traitsIcESaIcEEES9_b',
                                            'Param' => {
                                                         '0' => {
                                                                  'name' => 'id',
                                                                  'offset' => '4',
                                                                  'type' => '42113'
                                                                },
                                                         '1' => {
                                                                  'name' => 'label',
                                                                  'offset' => '8',
                                                                  'type' => '42113'
                                                                },
                                                         '2' => {
                                                                  'name' => 'multi_select',
                                                                  'offset' => '12',
                                                                  'type' => '36673'
                                                                }
                                                       },
                                            'Return' => '15415621',
                                            'ShortName' => 'create',
                                            'Source' => 'OptionSelectorFilter.cpp',
                                            'SourceLine' => '33',
                                            'Static' => 1
                                          },
                            '15415729' => {
                                            'Class' => '12560521',
                                            'Const' => 1,
                                            'Header' => 'OptionSelectorFilter.h',
                                            'Line' => '65',
                                            'MnglName' => '_ZNK5unity6scopes20OptionSelectorFilter5labelB5cxx11Ev',
                                            'Param' => {
                                                         '0' => {
                                                                  'name' => 'this',
                                                                  'offset' => '4',
                                                                  'type' => '27252245'
                                                                }
                                                       },
                                            'Return' => '6675',
                                            'ShortName' => 'label',
                                            'Source' => 'OptionSelectorFilter.cpp',
                                            'SourceLine' => '38'
                                          },
                            '15415759' => {
                                            'Class' => '12560521',
                                            'Const' => 1,
                                            'Header' => 'OptionSelectorFilter.h',
                                            'Line' => '71',
                                            'MnglName' => '_ZNK5unity6scopes20OptionSelectorFilter12multi_selectEv',
                                            'Param' => {
                                                         '0' => {
                                                                  'name' => 'this',
                                                                  'offset' => '0',
                                                                  'type' => '27252245'
                                                                }
                                                       },
                                            'Return' => '36673',
                                            'ShortName' => 'multi_select',
                                            'Source' => 'OptionSelectorFilter.cpp',
                                            'SourceLine' => '43'
                                          },
                            '15415789' => {
                                            'Class' => '12560521',
                                            'Header' => 'OptionSelectorFilter.h',
                                            'Line' => '77',
                                            'MnglName' => '_ZN5unity6scopes20OptionSelectorFilter10add_optionERKNSt7__cxx1112basic_stringIcSt11char_traitsIcESaIcEEES9_',
                                            'Param' => {
                                                         '0' => {
                                                                  'name' => 'this',
                                                                  'offset' => '4',
                                                                  'type' => '15420892'
                                                                },
                                                         '1' => {
                                                                  'name' => 'id',
                                                                  'offset' => '8',
                                                                  'type' => '42113'
                                                                },
                                                         '2' => {
                                                                  'name' => 'label',
                                                                  'offset' => '12',
                                                                  'type' => '42113'
                                                                }
                                                       },
                                            'Return' => '15415004',
                                            'ShortName' => 'add_option',
                                            'Source' => 'OptionSelectorFilter.cpp',
                                            'SourceLine' => '48'
                                          },
                            '15415859' => {
                                            'Class' => '12560521',
                                            'Const' => 1,
                                            'Header' => 'OptionSelectorFilter.h',
                                            'Line' => '90',
                                            'MnglName' => '_ZNK5unity6scopes20OptionSelectorFilter17has_active_optionERKNS0_11FilterStateE',
                                            'Param' => {
                                                         '0' => {
                                                                  'name' => 'this',
                                                                  'offset' => '0',
                                                                  'type' => '27252245'
                                                                },
                                                         '1' => {
                                                                  'name' => 'filter_state',
                                                                  'offset' => '4',
                                                                  'type' => '109625'
                                                                }
                                                       },
                                            'Return' => '36673',
                                            'ShortName' => 'has_active_option',
                                            'Source' => 'OptionSelectorFilter.cpp',
                                            'SourceLine' => '58'
                                          },
                            '15415894' => {
                                            'Class' => '12560521',
                                            'Const' => 1,
                                            'Header' => 'OptionSelectorFilter.h',
                                            'Line' => '96',
                                            'MnglName' => '_ZNK5unity6scopes20OptionSelectorFilter14active_optionsERKNS0_11FilterStateE',
                                            'Param' => {
                                                         '0' => {
                                                                  'name' => 'this',
                                                                  'offset' => '4',
                                                                  'type' => '27252245'
                                                                },
                                                         '1' => {
                                                                  'name' => 'filter_state',
                                                                  'offset' => '8',
                                                                  'type' => '109625'
                                                                }
                                                       },
                                            'Return' => '15376783',
                                            'ShortName' => 'active_options',
                                            'Source' => 'OptionSelectorFilter.cpp',
                                            'SourceLine' => '63'
                                          },
                            '15415929' => {
                                            'Class' => '12560521',
                                            'Const' => 1,
                                            'Header' => 'OptionSelectorFilter.h',
                                            'Line' => '104',
                                            'MnglName' => '_ZNK5unity6scopes20OptionSelectorFilter12update_stateERNS0_11FilterStateESt10shared_ptrIKNS0_12FilterOptionEEb',
                                            'Param' => {
                                                         '0' => {
                                                                  'name' => 'this',
                                                                  'offset' => '0',
                                                                  'type' => '27252245'
                                                                },
                                                         '1' => {
                                                                  'name' => 'filter_state',
                                                                  'offset' => '4',
                                                                  'type' => '109637'
                                                                },
                                                         '2' => {
                                                                  'name' => 'option',
                                                                  'offset' => '8',
                                                                  'type' => '15415004'
                                                                },
                                                         '3' => {
                                                                  'name' => 'active',
                                                                  'offset' => '12',
                                                                  'type' => '36673'
                                                                }
                                                       },
                                            'Return' => '1',
                                            'ShortName' => 'update_state',
                                            'Source' => 'OptionSelectorFilter.cpp',
                                            'SourceLine' => '68'
                                          },
                            '15415970' => {
                                            'Class' => '12560521',
                                            'Header' => 'OptionSelectorFilter.h',
                                            'Line' => '112',
                                            'MnglName' => '_ZN5unity6scopes20OptionSelectorFilter12update_stateERNS0_11FilterStateERKNSt7__cxx1112basic_stringIcSt11char_traitsIcESaIcEEESB_b',
                                            'Param' => {
                                                         '0' => {
                                                                  'name' => 'filter_state',
                                                                  'offset' => '0',
                                                                  'type' => '109637'
                                                                },
                                                         '1' => {
                                                                  'name' => 'filter_id',
                                                                  'offset' => '4',
                                                                  'type' => '42113'
                                                                },
                                                         '2' => {
                                                                  'name' => 'option_id',
                                                                  'offset' => '8',
                                                                  'type' => '42113'
                                                                },
                                                         '3' => {
                                                                  'name' => 'value',
                                                                  'offset' => '12',
                                                                  'type' => '36673'
                                                                }
                                                       },
                                            'Return' => '1',
                                            'ShortName' => 'update_state',
                                            'Source' => 'OptionSelectorFilter.cpp',
                                            'SourceLine' => '73',
                                            'Static' => 1
                                          },
                            '15416037' => {
                                            'Class' => '12560521',
                                            'Const' => 1,
                                            'Header' => 'OptionSelectorFilter.h',
                                            'Line' => '116',
                                            'MnglName' => '_ZNK5unity6scopes20OptionSelectorFilter3fwdEv',
                                            'Param' => {
                                                         '0' => {
                                                                  'name' => 'this',
                                                                  'offset' => '0',
                                                                  'type' => '27252245'
                                                                }
                                                       },
                                            'Private' => 1,
                                            'Return' => '15420538',
                                            'ShortName' => 'fwd',
                                            'Source' => 'OptionSelectorFilter.cpp',
                                            'SourceLine' => '78'
                                          },
                            '15445668' => {
                                            'Class' => '12560521',
                                            'Destructor' => 1,
                                            'Header' => 'OptionSelectorFilter.h',
                                            'Line' => '45',
                                            'MnglName' => '_ZN5unity6scopes20OptionSelectorFilterD2Ev',
                                            'Param' => {
                                                         '0' => {
                                                                  'name' => 'this',
                                                                  'offset' => '0',
                                                                  'type' => '15420892'
                                                                }
                                                       },
                                            'ShortName' => 'OptionSelectorFilter',
                                            'Virt' => 1
                                          },
                            '15445669' => {
                                            'Class' => '12560521',
                                            'Destructor' => 1,
                                            'Header' => 'OptionSelectorFilter.h',
                                            'Line' => '45',
                                            'MnglName' => '_ZN5unity6scopes20OptionSelectorFilterD1Ev',
                                            'Param' => {
                                                         '0' => {
                                                                  'name' => 'this',
                                                                  'offset' => '0',
                                                                  'type' => '15420892'
                                                                }
                                                       },
                                            'ShortName' => 'OptionSelectorFilter',
                                            'Virt' => 1
                                          },
                            '15445712' => {
                                            'Class' => '12560521',
                                            'Destructor' => 1,
                                            'Header' => 'OptionSelectorFilter.h',
                                            'Line' => '45',
                                            'MnglName' => '_ZN5unity6scopes20OptionSelectorFilterD0Ev',
                                            'Param' => {
                                                         '0' => {
                                                                  'name' => 'this',
                                                                  'offset' => '0',
                                                                  'type' => '15420892'
                                                                }
                                                       },
                                            'ShortName' => 'OptionSelectorFilter',
                                            'Virt' => 1
                                          },
                            '15445713' => {
                                            'Class' => '12560521',
                                            'Destructor' => 1,
                                            'Header' => 'OptionSelectorFilter.h',
                                            'Line' => '45',
                                            'MnglName' => '_ZN5unity6scopes20OptionSelectorFilterD1Ev',
                                            'Param' => {
                                                         '0' => {
                                                                  'name' => 'this',
                                                                  'offset' => '0',
                                                                  'type' => '15420892'
                                                                }
                                                       },
                                            'ShortName' => 'OptionSelectorFilter',
                                            'Virt' => 1
                                          },
                            '159351' => {
                                          'Class' => '43348',
                                          'Header' => 'BufferedResultForwarder.h',
                                          'MnglName' => '_ZN5unity6scopes7utility23BufferedResultForwarder4pushENS0_17CategorisedResultE',
                                          'Param' => {
                                                       '0' => {
                                                                'name' => 'this',
                                                                'offset' => '0',
                                                                'type' => '163188'
                                                              },
                                                       '1' => {
                                                                'name' => 'result',
                                                                'offset' => '4',
                                                                'type' => '43394'
                                                              }
                                                     },
                                          'Return' => '1',
                                          'ShortName' => 'push',
                                          'Source' => 'BufferedResultForwarder.cpp',
                                          'SourceLine' => '146',
                                          'Virt' => 1,
                                          'VirtPos' => '5'
                                        },
                            '159390' => {
                                          'Class' => '43348',
                                          'Const' => 1,
                                          'Header' => 'BufferedResultForwarder.h',
                                          'MnglName' => '_ZNK5unity6scopes7utility23BufferedResultForwarder8is_readyEv',
                                          'Param' => {
                                                       '0' => {
                                                                'name' => 'this',
                                                                'offset' => '0',
                                                                'type' => '164944'
                                                              }
                                                     },
                                          'Return' => '36673',
                                          'ShortName' => 'is_ready',
                                          'Source' => 'BufferedResultForwarder.cpp',
                                          'SourceLine' => '136'
                                        },
                            '159420' => {
                                          'Class' => '43348',
                                          'Header' => 'BufferedResultForwarder.h',
                                          'MnglName' => '_ZN5unity6scopes7utility23BufferedResultForwarder9set_readyEv',
                                          'Param' => {
                                                       '0' => {
                                                                'name' => 'this',
                                                                'offset' => '0',
                                                                'type' => '163188'
                                                              }
                                                     },
                                          'Protected' => 1,
                                          'Return' => '1',
                                          'ShortName' => 'set_ready',
                                          'Source' => 'BufferedResultForwarder.cpp',
                                          'SourceLine' => '141'
                                        },
                            '159446' => {
                                          'Class' => '43348',
                                          'Const' => 1,
                                          'Header' => 'BufferedResultForwarder.h',
                                          'MnglName' => '_ZNK5unity6scopes7utility23BufferedResultForwarder8upstreamEv',
                                          'Param' => {
                                                       '0' => {
                                                                'name' => 'this',
                                                                'offset' => '4',
                                                                'type' => '164944'
                                                              }
                                                     },
                                          'Protected' => 1,
                                          'Return' => '43378',
                                          'ShortName' => 'upstream',
                                          'Source' => 'BufferedResultForwarder.cpp',
                                          'SourceLine' => '151'
                                        },
                            '159476' => {
                                          'Class' => '43348',
                                          'Header' => 'BufferedResultForwarder.h',
                                          'MnglName' => '_ZN5unity6scopes7utility23BufferedResultForwarder8finishedERKNS0_17CompletionDetailsE',
                                          'Param' => {
                                                       '0' => {
                                                                'name' => 'this',
                                                                'offset' => '0',
                                                                'type' => '163188'
                                                              },
                                                       '1' => {
                                                                'name' => 'details',
                                                                'offset' => '4',
                                                                'type' => '44357'
                                                              }
                                                     },
                                          'Protected' => 1,
                                          'Return' => '1',
                                          'ShortName' => 'finished',
                                          'Source' => 'BufferedResultForwarder.cpp',
                                          'SourceLine' => '156',
                                          'Virt' => 1,
                                          'VirtPos' => '2'
                                        },
                            '162895' => {
                                          'Class' => '43394',
                                          'Destructor' => 1,
                                          'Header' => 'CategorisedResult.h',
                                          'Line' => '41',
                                          'MnglName' => '_ZN5unity6scopes17CategorisedResultD2Ev',
                                          'Param' => {
                                                       '0' => {
                                                                'name' => 'this',
                                                                'offset' => '0',
                                                                'type' => '46069'
                                                              }
                                                     },
                                          'ShortName' => 'CategorisedResult',
                                          'Virt' => 1
                                        },
                            '162896' => {
                                          'Class' => '43394',
                                          'Destructor' => 1,
                                          'Header' => 'CategorisedResult.h',
                                          'Line' => '41',
                                          'MnglName' => '_ZN5unity6scopes17CategorisedResultD1Ev',
                                          'Param' => {
                                                       '0' => {
                                                                'name' => 'this',
                                                                'offset' => '0',
                                                                'type' => '46069'
                                                              }
                                                     },
                                          'ShortName' => 'CategorisedResult',
                                          'Virt' => 1
                                        },
                            '162939' => {
                                          'Class' => '43394',
                                          'Destructor' => 1,
                                          'Header' => 'CategorisedResult.h',
                                          'Line' => '41',
                                          'MnglName' => '_ZN5unity6scopes17CategorisedResultD0Ev',
                                          'Param' => {
                                                       '0' => {
                                                                'name' => 'this',
                                                                'offset' => '0',
                                                                'type' => '46069'
                                                              }
                                                     },
                                          'ShortName' => 'CategorisedResult',
                                          'Virt' => 1
                                        },
                            '162940' => {
                                          'Class' => '43394',
                                          'Destructor' => 1,
                                          'Header' => 'CategorisedResult.h',
                                          'Line' => '41',
                                          'MnglName' => '_ZN5unity6scopes17CategorisedResultD1Ev',
                                          'Param' => {
                                                       '0' => {
                                                                'name' => 'this',
                                                                'offset' => '0',
                                                                'type' => '46069'
                                                              }
                                                     },
                                          'ShortName' => 'CategorisedResult',
                                          'Virt' => 1
                                        },
                            '163391' => {
                                          'Class' => '43348',
                                          'Destructor' => 1,
                                          'Header' => 'BufferedResultForwarder.h',
                                          'Line' => '43',
                                          'MnglName' => '_ZN5unity6scopes7utility23BufferedResultForwarderD2Ev',
                                          'Param' => {
                                                       '0' => {
                                                                'name' => 'this',
                                                                'offset' => '0',
                                                                'type' => '163188'
                                                              }
                                                     },
                                          'ShortName' => 'BufferedResultForwarder',
                                          'Virt' => 1
                                        },
                            '163392' => {
                                          'Class' => '43348',
                                          'Destructor' => 1,
                                          'Header' => 'BufferedResultForwarder.h',
                                          'Line' => '43',
                                          'MnglName' => '_ZN5unity6scopes7utility23BufferedResultForwarderD1Ev',
                                          'Param' => {
                                                       '0' => {
                                                                'name' => 'this',
                                                                'offset' => '0',
                                                                'type' => '163188'
                                                              }
                                                     },
                                          'ShortName' => 'BufferedResultForwarder',
                                          'Virt' => 1
                                        },
                            '164545' => {
                                          'Class' => '43348',
                                          'Destructor' => 1,
                                          'Header' => 'BufferedResultForwarder.h',
                                          'Line' => '43',
                                          'MnglName' => '_ZN5unity6scopes7utility23BufferedResultForwarderD0Ev',
                                          'Param' => {
                                                       '0' => {
                                                                'name' => 'this',
                                                                'offset' => '0',
                                                                'type' => '163188'
                                                              }
                                                     },
                                          'ShortName' => 'BufferedResultForwarder',
                                          'Virt' => 1
                                        },
                            '164546' => {
                                          'Class' => '43348',
                                          'Destructor' => 1,
                                          'Header' => 'BufferedResultForwarder.h',
                                          'Line' => '43',
                                          'MnglName' => '_ZN5unity6scopes7utility23BufferedResultForwarderD1Ev',
                                          'Param' => {
                                                       '0' => {
                                                                'name' => 'this',
                                                                'offset' => '0',
                                                                'type' => '163188'
                                                              }
                                                     },
                                          'ShortName' => 'BufferedResultForwarder',
                                          'Virt' => 1
                                        },
                            '164659' => {
                                          'Class' => '43348',
                                          'Constructor' => 1,
                                          'Header' => 'BufferedResultForwarder.h',
                                          'MnglName' => '_ZN5unity6scopes7utility23BufferedResultForwarderC2ERKSt10shared_ptrINS0_11SearchReplyEERKS3_IS2_E',
                                          'Param' => {
                                                       '0' => {
                                                                'name' => 'this',
                                                                'offset' => '0',
                                                                'type' => '163188'
                                                              },
                                                       '1' => {
                                                                'name' => 'upstream',
                                                                'offset' => '4',
                                                                'type' => '44948'
                                                              },
                                                       '2' => {
                                                                'name' => 'next_forwarder',
                                                                'offset' => '8',
                                                                'type' => '44955'
                                                              }
                                                     },
                                          'ShortName' => 'BufferedResultForwarder',
                                          'Source' => 'BufferedResultForwarder.cpp',
                                          'SourceLine' => '126'
                                        },
                            '164660' => {
                                          'Class' => '43348',
                                          'Constructor' => 1,
                                          'Header' => 'BufferedResultForwarder.h',
                                          'MnglName' => '_ZN5unity6scopes7utility23BufferedResultForwarderC1ERKSt10shared_ptrINS0_11SearchReplyEERKS3_IS2_E',
                                          'Param' => {
                                                       '0' => {
                                                                'name' => 'this',
                                                                'offset' => '0',
                                                                'type' => '163188'
                                                              },
                                                       '1' => {
                                                                'name' => 'upstream',
                                                                'offset' => '4',
                                                                'type' => '44948'
                                                              },
                                                       '2' => {
                                                                'name' => 'next_forwarder',
                                                                'offset' => '8',
                                                                'type' => '44955'
                                                              }
                                                     },
                                          'ShortName' => 'BufferedResultForwarder',
                                          'Source' => 'BufferedResultForwarder.cpp',
                                          'SourceLine' => '126'
                                        },
                            '17154944' => {
                                            'Class' => '12560424',
                                            'Header' => 'RadioButtonsFilter.h',
                                            'Line' => '62',
                                            'MnglName' => '_ZN5unity6scopes12experimental18RadioButtonsFilter6createERKNSt7__cxx1112basic_stringIcSt11char_traitsIcESaIcEEESA_',
                                            'Param' => {
                                                         '0' => {
                                                                  'name' => 'id',
                                                                  'offset' => '4',
                                                                  'type' => '42113'
                                                                },
                                                         '1' => {
                                                                  'name' => 'label',
                                                                  'offset' => '8',
                                                                  'type' => '42113'
                                                                }
                                                       },
                                            'Return' => '17154872',
                                            'ShortName' => 'create',
                                            'Source' => 'RadioButtonsFilter.cpp',
                                            'SourceLine' => '71',
                                            'Static' => 1
                                          },
                            '17154975' => {
                                            'Class' => '12560424',
                                            'Header' => 'RadioButtonsFilter.h',
                                            'Line' => '71',
                                            'MnglName' => '_ZN5unity6scopes12experimental18RadioButtonsFilter10add_optionERKNSt7__cxx1112basic_stringIcSt11char_traitsIcESaIcEEESA_',
                                            'Param' => {
                                                         '0' => {
                                                                  'name' => 'this',
                                                                  'offset' => '4',
                                                                  'type' => '17158574'
                                                                },
                                                         '1' => {
                                                                  'name' => 'id',
                                                                  'offset' => '8',
                                                                  'type' => '42113'
                                                                },
                                                         '2' => {
                                                                  'name' => 'label',
                                                                  'offset' => '12',
                                                                  'type' => '42113'
                                                                }
                                                       },
                                            'Return' => '15415004',
                                            'ShortName' => 'add_option',
                                            'Source' => 'RadioButtonsFilter.cpp',
                                            'SourceLine' => '36'
                                          },
                            '17155015' => {
                                            'Class' => '12560424',
                                            'Const' => 1,
                                            'Header' => 'RadioButtonsFilter.h',
                                            'Line' => '77',
                                            'MnglName' => '_ZNK5unity6scopes12experimental18RadioButtonsFilter5labelB5cxx11Ev',
                                            'Param' => {
                                                         '0' => {
                                                                  'name' => 'this',
                                                                  'offset' => '4',
                                                                  'type' => '27527364'
                                                                }
                                                       },
                                            'Return' => '6675',
                                            'ShortName' => 'label',
                                            'Source' => 'RadioButtonsFilter.cpp',
                                            'SourceLine' => '41'
                                          },
                            '17155045' => {
                                            'Class' => '12560424',
                                            'Const' => 1,
                                            'Header' => 'RadioButtonsFilter.h',
                                            'Line' => '83',
                                            'MnglName' => '_ZNK5unity6scopes12experimental18RadioButtonsFilter13active_optionERKNS0_11FilterStateE',
                                            'Param' => {
                                                         '0' => {
                                                                  'name' => 'this',
                                                                  'offset' => '4',
                                                                  'type' => '27527364'
                                                                },
                                                         '1' => {
                                                                  'name' => 'filter_state',
                                                                  'offset' => '8',
                                                                  'type' => '109625'
                                                                }
                                                       },
                                            'Return' => '15415004',
                                            'ShortName' => 'active_option',
                                            'Source' => 'RadioButtonsFilter.cpp',
                                            'SourceLine' => '46'
                                          },
                            '17155080' => {
                                            'Class' => '12560424',
                                            'Const' => 1,
                                            'Header' => 'RadioButtonsFilter.h',
                                            'Line' => '90',
                                            'MnglName' => '_ZNK5unity6scopes12experimental18RadioButtonsFilter17has_active_optionERKNS0_11FilterStateE',
                                            'Param' => {
                                                         '0' => {
                                                                  'name' => 'this',
                                                                  'offset' => '0',
                                                                  'type' => '27527364'
                                                                },
                                                         '1' => {
                                                                  'name' => 'filter_state',
                                                                  'offset' => '4',
                                                                  'type' => '109625'
                                                                }
                                                       },
                                            'Return' => '36673',
                                            'ShortName' => 'has_active_option',
                                            'Source' => 'RadioButtonsFilter.cpp',
                                            'SourceLine' => '51'
                                          },
                            '17155145' => {
                                            'Class' => '12560424',
                                            'Const' => 1,
                                            'Header' => 'RadioButtonsFilter.h',
                                            'Line' => '106',
                                            'MnglName' => '_ZNK5unity6scopes12experimental18RadioButtonsFilter12update_stateERNS0_11FilterStateESt10shared_ptrIKNS0_12FilterOptionEEb',
                                            'Param' => {
                                                         '0' => {
                                                                  'name' => 'this',
                                                                  'offset' => '0',
                                                                  'type' => '27527364'
                                                                },
                                                         '1' => {
                                                                  'name' => 'filter_state',
                                                                  'offset' => '4',
                                                                  'type' => '109637'
                                                                },
                                                         '2' => {
                                                                  'name' => 'option',
                                                                  'offset' => '8',
                                                                  'type' => '15415004'
                                                                },
                                                         '3' => {
                                                                  'name' => 'active',
                                                                  'offset' => '12',
                                                                  'type' => '36673'
                                                                }
                                                       },
                                            'Return' => '1',
                                            'ShortName' => 'update_state',
                                            'Source' => 'RadioButtonsFilter.cpp',
                                            'SourceLine' => '61'
                                          },
                            '17155186' => {
                                            'Class' => '12560424',
                                            'Header' => 'RadioButtonsFilter.h',
                                            'Line' => '114',
                                            'MnglName' => '_ZN5unity6scopes12experimental18RadioButtonsFilter12update_stateERNS0_11FilterStateERKNSt7__cxx1112basic_stringIcSt11char_traitsIcESaIcEEESC_b',
                                            'Param' => {
                                                         '0' => {
                                                                  'name' => 'filter_state',
                                                                  'offset' => '0',
                                                                  'type' => '109637'
                                                                },
                                                         '1' => {
                                                                  'name' => 'filter_id',
                                                                  'offset' => '4',
                                                                  'type' => '42113'
                                                                },
                                                         '2' => {
                                                                  'name' => 'option_id',
                                                                  'offset' => '8',
                                                                  'type' => '42113'
                                                                },
                                                         '3' => {
                                                                  'name' => 'value',
                                                                  'offset' => '12',
                                                                  'type' => '36673'
                                                                }
                                                       },
                                            'Return' => '1',
                                            'ShortName' => 'update_state',
                                            'Source' => 'RadioButtonsFilter.cpp',
                                            'SourceLine' => '66',
                                            'Static' => 1
                                          },
                            '17155254' => {
                                            'Class' => '12560424',
                                            'Const' => 1,
                                            'Header' => 'RadioButtonsFilter.h',
                                            'Line' => '118',
                                            'MnglName' => '_ZNK5unity6scopes12experimental18RadioButtonsFilter3fwdEv',
                                            'Param' => {
                                                         '0' => {
                                                                  'name' => 'this',
                                                                  'offset' => '0',
                                                                  'type' => '27527364'
                                                                }
                                                       },
                                            'Private' => 1,
                                            'Return' => '17157744',
                                            'ShortName' => 'fwd',
                                            'Source' => 'RadioButtonsFilter.cpp',
                                            'SourceLine' => '76'
                                          },
                            '17163873' => {
                                            'Class' => '12560424',
                                            'Destructor' => 1,
                                            'Header' => 'RadioButtonsFilter.h',
                                            'Line' => '47',
                                            'MnglName' => '_ZN5unity6scopes12experimental18RadioButtonsFilterD2Ev',
                                            'Param' => {
                                                         '0' => {
                                                                  'name' => 'this',
                                                                  'offset' => '0',
                                                                  'type' => '17158574'
                                                                }
                                                       },
                                            'ShortName' => 'RadioButtonsFilter',
                                            'Virt' => 1
                                          },
                            '17163874' => {
                                            'Class' => '12560424',
                                            'Destructor' => 1,
                                            'Header' => 'RadioButtonsFilter.h',
                                            'Line' => '47',
                                            'MnglName' => '_ZN5unity6scopes12experimental18RadioButtonsFilterD1Ev',
                                            'Param' => {
                                                         '0' => {
                                                                  'name' => 'this',
                                                                  'offset' => '0',
                                                                  'type' => '17158574'
                                                                }
                                                       },
                                            'ShortName' => 'RadioButtonsFilter',
                                            'Virt' => 1
                                          },
                            '17163917' => {
                                            'Class' => '12560424',
                                            'Destructor' => 1,
                                            'Header' => 'RadioButtonsFilter.h',
                                            'Line' => '47',
                                            'MnglName' => '_ZN5unity6scopes12experimental18RadioButtonsFilterD0Ev',
                                            'Param' => {
                                                         '0' => {
                                                                  'name' => 'this',
                                                                  'offset' => '0',
                                                                  'type' => '17158574'
                                                                }
                                                       },
                                            'ShortName' => 'RadioButtonsFilter',
                                            'Virt' => 1
                                          },
                            '17163918' => {
                                            'Class' => '12560424',
                                            'Destructor' => 1,
                                            'Header' => 'RadioButtonsFilter.h',
                                            'Line' => '47',
                                            'MnglName' => '_ZN5unity6scopes12experimental18RadioButtonsFilterD1Ev',
                                            'Param' => {
                                                         '0' => {
                                                                  'name' => 'this',
                                                                  'offset' => '0',
                                                                  'type' => '17158574'
                                                                }
                                                       },
                                            'ShortName' => 'RadioButtonsFilter',
                                            'Virt' => 1
                                          },
                            '17218186' => {
                                            'Class' => '12560462',
                                            'Header' => 'RatingFilter.h',
                                            'Line' => '67',
                                            'MnglName' => '_ZN5unity6scopes12experimental12RatingFilter6createERKNSt7__cxx1112basic_stringIcSt11char_traitsIcESaIcEEESA_',
                                            'Param' => {
                                                         '0' => {
                                                                  'name' => 'id',
                                                                  'offset' => '4',
                                                                  'type' => '42113'
                                                                },
                                                         '1' => {
                                                                  'name' => 'label',
                                                                  'offset' => '8',
                                                                  'type' => '42113'
                                                                }
                                                       },
                                            'Return' => '17218114',
                                            'ShortName' => 'create',
                                            'Source' => 'RatingFilter.cpp',
                                            'SourceLine' => '41',
                                            'Static' => 1
                                          },
                            '17218217' => {
                                            'Class' => '12560462',
                                            'Header' => 'RatingFilter.h',
                                            'Line' => '83',
                                            'MnglName' => '_ZN5unity6scopes12experimental12RatingFilter6createERKNSt7__cxx1112basic_stringIcSt11char_traitsIcESaIcEEESA_i',
                                            'Param' => {
                                                         '0' => {
                                                                  'name' => 'id',
                                                                  'offset' => '4',
                                                                  'type' => '42113'
                                                                },
                                                         '1' => {
                                                                  'name' => 'label',
                                                                  'offset' => '8',
                                                                  'type' => '42113'
                                                                },
                                                         '2' => {
                                                                  'name' => 'top_rating',
                                                                  'offset' => '12',
                                                                  'type' => '36631'
                                                                }
                                                       },
                                            'Return' => '17218114',
                                            'ShortName' => 'create',
                                            'Source' => 'RatingFilter.cpp',
                                            'SourceLine' => '36',
                                            'Static' => 1
                                          },
                            '17218253' => {
                                            'Class' => '12560462',
                                            'Header' => 'RatingFilter.h',
                                            'Line' => '92',
                                            'MnglName' => '_ZN5unity6scopes12experimental12RatingFilter10add_optionERKNSt7__cxx1112basic_stringIcSt11char_traitsIcESaIcEEESA_',
                                            'Param' => {
                                                         '0' => {
                                                                  'name' => 'this',
                                                                  'offset' => '4',
                                                                  'type' => '17221065'
                                                                },
                                                         '1' => {
                                                                  'name' => 'id',
                                                                  'offset' => '8',
                                                                  'type' => '42113'
                                                                },
                                                         '2' => {
                                                                  'name' => 'label',
                                                                  'offset' => '12',
                                                                  'type' => '42113'
                                                                }
                                                       },
                                            'Return' => '15415004',
                                            'ShortName' => 'add_option',
                                            'Source' => 'RatingFilter.cpp',
                                            'SourceLine' => '46'
                                          },
                            '17218293' => {
                                            'Class' => '12560462',
                                            'Header' => 'RatingFilter.h',
                                            'Line' => '101',
                                            'MnglName' => '_ZN5unity6scopes12experimental12RatingFilter11set_on_iconERKNSt7__cxx1112basic_stringIcSt11char_traitsIcESaIcEEE',
                                            'Param' => {
                                                         '0' => {
                                                                  'name' => 'this',
                                                                  'offset' => '0',
                                                                  'type' => '17221065'
                                                                },
                                                         '1' => {
                                                                  'name' => 'on_icon',
                                                                  'offset' => '4',
                                                                  'type' => '42113'
                                                                }
                                                       },
                                            'Return' => '1',
                                            'ShortName' => 'set_on_icon',
                                            'Source' => 'RatingFilter.cpp',
                                            'SourceLine' => '51'
                                          },
                            '17218324' => {
                                            'Class' => '12560462',
                                            'Header' => 'RatingFilter.h',
                                            'Line' => '110',
                                            'MnglName' => '_ZN5unity6scopes12experimental12RatingFilter12set_off_iconERKNSt7__cxx1112basic_stringIcSt11char_traitsIcESaIcEEE',
                                            'Param' => {
                                                         '0' => {
                                                                  'name' => 'this',
                                                                  'offset' => '0',
                                                                  'type' => '17221065'
                                                                },
                                                         '1' => {
                                                                  'name' => 'off_icon',
                                                                  'offset' => '4',
                                                                  'type' => '42113'
                                                                }
                                                       },
                                            'Return' => '1',
                                            'ShortName' => 'set_off_icon',
                                            'Source' => 'RatingFilter.cpp',
                                            'SourceLine' => '56'
                                          },
                            '17218355' => {
                                            'Class' => '12560462',
                                            'Const' => 1,
                                            'Header' => 'RatingFilter.h',
                                            'Line' => '116',
                                            'MnglName' => '_ZNK5unity6scopes12experimental12RatingFilter5labelB5cxx11Ev',
                                            'Param' => {
                                                         '0' => {
                                                                  'name' => 'this',
                                                                  'offset' => '4',
                                                                  'type' => '27566997'
                                                                }
                                                       },
                                            'Return' => '6675',
                                            'ShortName' => 'label',
                                            'Source' => 'RatingFilter.cpp',
                                            'SourceLine' => '61'
                                          },
                            '17218385' => {
                                            'Class' => '12560462',
                                            'Const' => 1,
                                            'Header' => 'RatingFilter.h',
                                            'Line' => '125',
                                            'MnglName' => '_ZNK5unity6scopes12experimental12RatingFilter7on_iconB5cxx11Ev',
                                            'Param' => {
                                                         '0' => {
                                                                  'name' => 'this',
                                                                  'offset' => '4',
                                                                  'type' => '27566997'
                                                                }
                                                       },
                                            'Return' => '6675',
                                            'ShortName' => 'on_icon',
                                            'Source' => 'RatingFilter.cpp',
                                            'SourceLine' => '71'
                                          },
                            '17218415' => {
                                            'Class' => '12560462',
                                            'Const' => 1,
                                            'Header' => 'RatingFilter.h',
                                            'Line' => '134',
                                            'MnglName' => '_ZNK5unity6scopes12experimental12RatingFilter8off_iconB5cxx11Ev',
                                            'Param' => {
                                                         '0' => {
                                                                  'name' => 'this',
                                                                  'offset' => '4',
                                                                  'type' => '27566997'
                                                                }
                                                       },
                                            'Return' => '6675',
                                            'ShortName' => 'off_icon',
                                            'Source' => 'RatingFilter.cpp',
                                            'SourceLine' => '76'
                                          },
                            '17218475' => {
                                            'Class' => '12560462',
                                            'Const' => 1,
                                            'Header' => 'RatingFilter.h',
                                            'Line' => '147',
                                            'MnglName' => '_ZNK5unity6scopes12experimental12RatingFilter17has_active_ratingERKNS0_11FilterStateE',
                                            'Param' => {
                                                         '0' => {
                                                                  'name' => 'this',
                                                                  'offset' => '0',
                                                                  'type' => '27566997'
                                                                },
                                                         '1' => {
                                                                  'name' => 'filter_state',
                                                                  'offset' => '4',
                                                                  'type' => '109625'
                                                                }
                                                       },
                                            'Return' => '36673',
                                            'ShortName' => 'has_active_rating',
                                            'Source' => 'RatingFilter.cpp',
                                            'SourceLine' => '86'
                                          },
                            '17218510' => {
                                            'Class' => '12560462',
                                            'Const' => 1,
                                            'Header' => 'RatingFilter.h',
                                            'Line' => '153',
                                            'MnglName' => '_ZNK5unity6scopes12experimental12RatingFilter13active_ratingERKNS0_11FilterStateE',
                                            'Param' => {
                                                         '0' => {
                                                                  'name' => 'this',
                                                                  'offset' => '4',
                                                                  'type' => '27566997'
                                                                },
                                                         '1' => {
                                                                  'name' => 'filter_state',
                                                                  'offset' => '8',
                                                                  'type' => '109625'
                                                                }
                                                       },
                                            'Return' => '15415004',
                                            'ShortName' => 'active_rating',
                                            'Source' => 'RatingFilter.cpp',
                                            'SourceLine' => '81'
                                          },
                            '17218545' => {
                                            'Class' => '12560462',
                                            'Const' => 1,
                                            'Header' => 'RatingFilter.h',
                                            'Line' => '162',
                                            'MnglName' => '_ZNK5unity6scopes12experimental12RatingFilter12update_stateERNS0_11FilterStateESt10shared_ptrIKNS0_12FilterOptionEEb',
                                            'Param' => {
                                                         '0' => {
                                                                  'name' => 'this',
                                                                  'offset' => '0',
                                                                  'type' => '27566997'
                                                                },
                                                         '1' => {
                                                                  'name' => 'filter_state',
                                                                  'offset' => '4',
                                                                  'type' => '109637'
                                                                },
                                                         '2' => {
                                                                  'name' => 'option',
                                                                  'offset' => '8',
                                                                  'type' => '15415004'
                                                                },
                                                         '3' => {
                                                                  'name' => 'active',
                                                                  'offset' => '12',
                                                                  'type' => '36673'
                                                                }
                                                       },
                                            'Return' => '1',
                                            'ShortName' => 'update_state',
                                            'Source' => 'RatingFilter.cpp',
                                            'SourceLine' => '91'
                                          },
                            '17218586' => {
                                            'Class' => '12560462',
                                            'Header' => 'RatingFilter.h',
                                            'Line' => '170',
                                            'MnglName' => '_ZN5unity6scopes12experimental12RatingFilter12update_stateERNS0_11FilterStateERKNSt7__cxx1112basic_stringIcSt11char_traitsIcESaIcEEESC_b',
                                            'Param' => {
                                                         '0' => {
                                                                  'name' => 'filter_state',
                                                                  'offset' => '0',
                                                                  'type' => '109637'
                                                                },
                                                         '1' => {
                                                                  'name' => 'filter_id',
                                                                  'offset' => '4',
                                                                  'type' => '42113'
                                                                },
                                                         '2' => {
                                                                  'name' => 'option_id',
                                                                  'offset' => '8',
                                                                  'type' => '42113'
                                                                },
                                                         '3' => {
                                                                  'name' => 'value',
                                                                  'offset' => '12',
                                                                  'type' => '36673'
                                                                }
                                                       },
                                            'Return' => '1',
                                            'ShortName' => 'update_state',
                                            'Source' => 'RatingFilter.cpp',
                                            'SourceLine' => '96',
                                            'Static' => 1
                                          },
                            '17218654' => {
                                            'Class' => '12560462',
                                            'Const' => 1,
                                            'Header' => 'RatingFilter.h',
                                            'Line' => '174',
                                            'MnglName' => '_ZNK5unity6scopes12experimental12RatingFilter3fwdEv',
                                            'Param' => {
                                                         '0' => {
                                                                  'name' => 'this',
                                                                  'offset' => '0',
                                                                  'type' => '27566997'
                                                                }
                                                       },
                                            'Private' => 1,
                                            'Return' => '17220197',
                                            'ShortName' => 'fwd',
                                            'Source' => 'RatingFilter.cpp',
                                            'SourceLine' => '101'
                                          },
                            '17225294' => {
                                            'Class' => '12560462',
                                            'Destructor' => 1,
                                            'Header' => 'RatingFilter.h',
                                            'Line' => '52',
                                            'MnglName' => '_ZN5unity6scopes12experimental12RatingFilterD2Ev',
                                            'Param' => {
                                                         '0' => {
                                                                  'name' => 'this',
                                                                  'offset' => '0',
                                                                  'type' => '17221065'
                                                                }
                                                       },
                                            'ShortName' => 'RatingFilter',
                                            'Virt' => 1
                                          },
                            '17225295' => {
                                            'Class' => '12560462',
                                            'Destructor' => 1,
                                            'Header' => 'RatingFilter.h',
                                            'Line' => '52',
                                            'MnglName' => '_ZN5unity6scopes12experimental12RatingFilterD1Ev',
                                            'Param' => {
                                                         '0' => {
                                                                  'name' => 'this',
                                                                  'offset' => '0',
                                                                  'type' => '17221065'
                                                                }
                                                       },
                                            'ShortName' => 'RatingFilter',
                                            'Virt' => 1
                                          },
                            '17225338' => {
                                            'Class' => '12560462',
                                            'Destructor' => 1,
                                            'Header' => 'RatingFilter.h',
                                            'Line' => '52',
                                            'MnglName' => '_ZN5unity6scopes12experimental12RatingFilterD0Ev',
                                            'Param' => {
                                                         '0' => {
                                                                  'name' => 'this',
                                                                  'offset' => '0',
                                                                  'type' => '17221065'
                                                                }
                                                       },
                                            'ShortName' => 'RatingFilter',
                                            'Virt' => 1
                                          },
                            '17225339' => {
                                            'Class' => '12560462',
                                            'Destructor' => 1,
                                            'Header' => 'RatingFilter.h',
                                            'Line' => '52',
                                            'MnglName' => '_ZN5unity6scopes12experimental12RatingFilterD1Ev',
                                            'Param' => {
                                                         '0' => {
                                                                  'name' => 'this',
                                                                  'offset' => '0',
                                                                  'type' => '17221065'
                                                                }
                                                       },
                                            'ShortName' => 'RatingFilter',
                                            'Virt' => 1
                                          },
                            '17291473' => {
                                            'Class' => '12560419',
                                            'Header' => 'RangeInputFilter.h',
                                            'Line' => '58',
                                            'MnglName' => '_ZN5unity6scopes12experimental16RangeInputFilter6createERKNSt7__cxx1112basic_stringIcSt11char_traitsIcESaIcEEESA_SA_SA_',
                                            'Param' => {
                                                         '0' => {
                                                                  'name' => 'id',
                                                                  'offset' => '4',
                                                                  'type' => '42113'
                                                                },
                                                         '1' => {
                                                                  'name' => 'start_label',
                                                                  'offset' => '8',
                                                                  'type' => '42113'
                                                                },
                                                         '2' => {
                                                                  'name' => 'end_label',
                                                                  'offset' => '12',
                                                                  'type' => '42113'
                                                                },
                                                         '3' => {
                                                                  'name' => 'unit_label',
                                                                  'offset' => '16',
                                                                  'type' => '42113'
                                                                }
                                                       },
                                            'Return' => '17291394',
                                            'ShortName' => 'create',
                                            'Source' => 'RangeInputFilter.cpp',
                                            'SourceLine' => '32',
                                            'Static' => 1
                                          },
                            '17291514' => {
                                            'Class' => '12560419',
                                            'Const' => 1,
                                            'Header' => 'RangeInputFilter.h',
                                            'Line' => '64',
                                            'MnglName' => '_ZNK5unity6scopes12experimental16RangeInputFilter11start_labelB5cxx11Ev',
                                            'Param' => {
                                                         '0' => {
                                                                  'name' => 'this',
                                                                  'offset' => '4',
                                                                  'type' => '27175482'
                                                                }
                                                       },
                                            'Return' => '6675',
                                            'ShortName' => 'start_label',
                                            'Source' => 'RangeInputFilter.cpp',
                                            'SourceLine' => '42'
                                          },
                            '17291544' => {
                                            'Class' => '12560419',
                                            'Const' => 1,
                                            'Header' => 'RangeInputFilter.h',
                                            'Line' => '70',
                                            'MnglName' => '_ZNK5unity6scopes12experimental16RangeInputFilter9end_labelB5cxx11Ev',
                                            'Param' => {
                                                         '0' => {
                                                                  'name' => 'this',
                                                                  'offset' => '4',
                                                                  'type' => '27175482'
                                                                }
                                                       },
                                            'Return' => '6675',
                                            'ShortName' => 'end_label',
                                            'Source' => 'RangeInputFilter.cpp',
                                            'SourceLine' => '47'
                                          },
                            '17291574' => {
                                            'Class' => '12560419',
                                            'Const' => 1,
                                            'Header' => 'RangeInputFilter.h',
                                            'Line' => '76',
                                            'MnglName' => '_ZNK5unity6scopes12experimental16RangeInputFilter10unit_labelB5cxx11Ev',
                                            'Param' => {
                                                         '0' => {
                                                                  'name' => 'this',
                                                                  'offset' => '4',
                                                                  'type' => '27175482'
                                                                }
                                                       },
                                            'Return' => '6675',
                                            'ShortName' => 'unit_label',
                                            'Source' => 'RangeInputFilter.cpp',
                                            'SourceLine' => '52'
                                          },
                            '17291604' => {
                                            'Class' => '12560419',
                                            'Const' => 1,
                                            'Header' => 'RangeInputFilter.h',
                                            'Line' => '84',
                                            'MnglName' => '_ZNK5unity6scopes12experimental16RangeInputFilter15has_start_valueERKNS0_11FilterStateE',
                                            'Param' => {
                                                         '0' => {
                                                                  'name' => 'this',
                                                                  'offset' => '0',
                                                                  'type' => '27175482'
                                                                },
                                                         '1' => {
                                                                  'name' => 'filter_state',
                                                                  'offset' => '4',
                                                                  'type' => '109625'
                                                                }
                                                       },
                                            'Return' => '36673',
                                            'ShortName' => 'has_start_value',
                                            'Source' => 'RangeInputFilter.cpp',
                                            'SourceLine' => '57'
                                          },
                            '17291639' => {
                                            'Class' => '12560419',
                                            'Const' => 1,
                                            'Header' => 'RangeInputFilter.h',
                                            'Line' => '92',
                                            'MnglName' => '_ZNK5unity6scopes12experimental16RangeInputFilter13has_end_valueERKNS0_11FilterStateE',
                                            'Param' => {
                                                         '0' => {
                                                                  'name' => 'this',
                                                                  'offset' => '0',
                                                                  'type' => '27175482'
                                                                },
                                                         '1' => {
                                                                  'name' => 'filter_state',
                                                                  'offset' => '4',
                                                                  'type' => '109625'
                                                                }
                                                       },
                                            'Return' => '36673',
                                            'ShortName' => 'has_end_value',
                                            'Source' => 'RangeInputFilter.cpp',
                                            'SourceLine' => '62'
                                          },
                            '17291674' => {
                                            'Class' => '12560419',
                                            'Const' => 1,
                                            'Header' => 'RangeInputFilter.h',
                                            'Line' => '100',
                                            'MnglName' => '_ZNK5unity6scopes12experimental16RangeInputFilter11start_valueERKNS0_11FilterStateE',
                                            'Param' => {
                                                         '0' => {
                                                                  'name' => 'this',
                                                                  'offset' => '0',
                                                                  'type' => '27175482'
                                                                },
                                                         '1' => {
                                                                  'name' => 'filter_state',
                                                                  'offset' => '4',
                                                                  'type' => '109625'
                                                                }
                                                       },
                                            'Return' => '36659',
                                            'ShortName' => 'start_value',
                                            'Source' => 'RangeInputFilter.cpp',
                                            'SourceLine' => '67'
                                          },
                            '17291709' => {
                                            'Class' => '12560419',
                                            'Const' => 1,
                                            'Header' => 'RangeInputFilter.h',
                                            'Line' => '108',
                                            'MnglName' => '_ZNK5unity6scopes12experimental16RangeInputFilter9end_valueERKNS0_11FilterStateE',
                                            'Param' => {
                                                         '0' => {
                                                                  'name' => 'this',
                                                                  'offset' => '0',
                                                                  'type' => '27175482'
                                                                },
                                                         '1' => {
                                                                  'name' => 'filter_state',
                                                                  'offset' => '4',
                                                                  'type' => '109625'
                                                                }
                                                       },
                                            'Return' => '36659',
                                            'ShortName' => 'end_value',
                                            'Source' => 'RangeInputFilter.cpp',
                                            'SourceLine' => '72'
                                          },
                            '17291744' => {
                                            'Class' => '12560419',
                                            'Const' => 1,
                                            'Header' => 'RangeInputFilter.h',
                                            'Line' => '123',
                                            'MnglName' => '_ZNK5unity6scopes12experimental16RangeInputFilter12update_stateERNS0_11FilterStateERKNS0_7VariantES7_',
                                            'Param' => {
                                                         '0' => {
                                                                  'name' => 'this',
                                                                  'offset' => '0',
                                                                  'type' => '27175482'
                                                                },
                                                         '1' => {
                                                                  'name' => 'filter_state',
                                                                  'offset' => '4',
                                                                  'type' => '109637'
                                                                },
                                                         '2' => {
                                                                  'name' => 'start_value',
                                                                  'offset' => '8',
                                                                  'type' => '109344'
                                                                },
                                                         '3' => {
                                                                  'name' => 'end_value',
                                                                  'offset' => '12',
                                                                  'type' => '109344'
                                                                }
                                                       },
                                            'Return' => '1',
                                            'ShortName' => 'update_state',
                                            'Source' => 'RangeInputFilter.cpp',
                                            'SourceLine' => '77'
                                          },
                            '17291785' => {
                                            'Class' => '12560419',
                                            'Header' => 'RangeInputFilter.h',
                                            'Line' => '139',
                                            'MnglName' => '_ZN5unity6scopes12experimental16RangeInputFilter12update_stateERNS0_11FilterStateERKNSt7__cxx1112basic_stringIcSt11char_traitsIcESaIcEEERKNS0_7VariantESF_',
                                            'Param' => {
                                                         '0' => {
                                                                  'name' => 'filter_state',
                                                                  'offset' => '0',
                                                                  'type' => '109637'
                                                                },
                                                         '1' => {
                                                                  'name' => 'filter_id',
                                                                  'offset' => '4',
                                                                  'type' => '42113'
                                                                },
                                                         '2' => {
                                                                  'name' => 'start_value',
                                                                  'offset' => '8',
                                                                  'type' => '109344'
                                                                },
                                                         '3' => {
                                                                  'name' => 'end_value',
                                                                  'offset' => '12',
                                                                  'type' => '109344'
                                                                }
                                                       },
                                            'Return' => '1',
                                            'ShortName' => 'update_state',
                                            'Source' => 'RangeInputFilter.cpp',
                                            'SourceLine' => '82',
                                            'Static' => 1
                                          },
                            '17291852' => {
                                            'Class' => '12560419',
                                            'Const' => 1,
                                            'Header' => 'RangeInputFilter.h',
                                            'Line' => '143',
                                            'MnglName' => '_ZNK5unity6scopes12experimental16RangeInputFilter3fwdEv',
                                            'Param' => {
                                                         '0' => {
                                                                  'name' => 'this',
                                                                  'offset' => '0',
                                                                  'type' => '27175482'
                                                                }
                                                       },
                                            'Private' => 1,
                                            'Return' => '17298428',
                                            'ShortName' => 'fwd',
                                            'Source' => 'RangeInputFilter.cpp',
                                            'SourceLine' => '87'
                                          },
                            '17310545' => {
                                            'Class' => '12560419',
                                            'Destructor' => 1,
                                            'Header' => 'RangeInputFilter.h',
                                            'Line' => '43',
                                            'MnglName' => '_ZN5unity6scopes12experimental16RangeInputFilterD2Ev',
                                            'Param' => {
                                                         '0' => {
                                                                  'name' => 'this',
                                                                  'offset' => '0',
                                                                  'type' => '17298952'
                                                                }
                                                       },
                                            'ShortName' => 'RangeInputFilter',
                                            'Virt' => 1
                                          },
                            '17310546' => {
                                            'Class' => '12560419',
                                            'Destructor' => 1,
                                            'Header' => 'RangeInputFilter.h',
                                            'Line' => '43',
                                            'MnglName' => '_ZN5unity6scopes12experimental16RangeInputFilterD1Ev',
                                            'Param' => {
                                                         '0' => {
                                                                  'name' => 'this',
                                                                  'offset' => '0',
                                                                  'type' => '17298952'
                                                                }
                                                       },
                                            'ShortName' => 'RangeInputFilter',
                                            'Virt' => 1
                                          },
                            '17310589' => {
                                            'Class' => '12560419',
                                            'Destructor' => 1,
                                            'Header' => 'RangeInputFilter.h',
                                            'Line' => '43',
                                            'MnglName' => '_ZN5unity6scopes12experimental16RangeInputFilterD0Ev',
                                            'Param' => {
                                                         '0' => {
                                                                  'name' => 'this',
                                                                  'offset' => '0',
                                                                  'type' => '17298952'
                                                                }
                                                       },
                                            'ShortName' => 'RangeInputFilter',
                                            'Virt' => 1
                                          },
                            '17310590' => {
                                            'Class' => '12560419',
                                            'Destructor' => 1,
                                            'Header' => 'RangeInputFilter.h',
                                            'Line' => '43',
                                            'MnglName' => '_ZN5unity6scopes12experimental16RangeInputFilterD1Ev',
                                            'Param' => {
                                                         '0' => {
                                                                  'name' => 'this',
                                                                  'offset' => '0',
                                                                  'type' => '17298952'
                                                                }
                                                       },
                                            'ShortName' => 'RangeInputFilter',
                                            'Virt' => 1
                                          },
                            '2354874' => {
                                           'Class' => '2354715',
                                           'Header' => 'ScopeMetadata.h',
                                           'Line' => '77',
                                           'MnglName' => '_ZN5unity6scopes13ScopeMetadataaSERKS1_',
                                           'Param' => {
                                                        '0' => {
                                                                 'name' => 'this',
                                                                 'offset' => '0',
                                                                 'type' => '28241527'
                                                               },
                                                        '1' => {
                                                                 'name' => 'other',
                                                                 'offset' => '4',
                                                                 'type' => '2356985'
                                                               }
                                                      },
                                           'Return' => '2356999',
                                           'ShortName' => 'operator=',
                                           'Source' => 'ScopeMetadata.cpp',
                                           'SourceLine' => '59'
                                         },
                            '2354909' => {
                                           'Class' => '2354715',
                                           'Header' => 'ScopeMetadata.h',
                                           'Line' => '78',
                                           'MnglName' => '_ZN5unity6scopes13ScopeMetadataaSEOS1_',
                                           'Param' => {
                                                        '0' => {
                                                                 'name' => 'this',
                                                                 'offset' => '0',
                                                                 'type' => '28241527'
                                                               },
                                                        '1' => {
                                                                 'name' => 'p1',
                                                                 'type' => '8463769'
                                                               }
                                                      },
                                           'Reg' => {
                                                      '1' => 'eax'
                                                    },
                                           'Return' => '2356999',
                                           'ShortName' => 'operator='
                                         },
                            '2354944' => {
                                           'Class' => '2354715',
                                           'Const' => 1,
                                           'Header' => 'ScopeMetadata.h',
                                           'Line' => '85',
                                           'MnglName' => '_ZNK5unity6scopes13ScopeMetadata8scope_idB5cxx11Ev',
                                           'Param' => {
                                                        '0' => {
                                                                 'name' => 'this',
                                                                 'offset' => '4',
                                                                 'type' => '28242204'
                                                               }
                                                      },
                                           'Return' => '6675',
                                           'ShortName' => 'scope_id',
                                           'Source' => 'ScopeMetadata.cpp',
                                           'SourceLine' => '70'
                                         },
                            '2354974' => {
                                           'Class' => '2354715',
                                           'Const' => 1,
                                           'Header' => 'ScopeMetadata.h',
                                           'Line' => '91',
                                           'MnglName' => '_ZNK5unity6scopes13ScopeMetadata5proxyEv',
                                           'Param' => {
                                                        '0' => {
                                                                 'name' => 'this',
                                                                 'offset' => '4',
                                                                 'type' => '28242204'
                                                               }
                                                      },
                                           'Return' => '2355576',
                                           'ShortName' => 'proxy',
                                           'Source' => 'ScopeMetadata.cpp',
                                           'SourceLine' => '75'
                                         },
                            '2355004' => {
                                           'Class' => '2354715',
                                           'Const' => 1,
                                           'Header' => 'ScopeMetadata.h',
                                           'Line' => '97',
                                           'MnglName' => '_ZNK5unity6scopes13ScopeMetadata12display_nameB5cxx11Ev',
                                           'Param' => {
                                                        '0' => {
                                                                 'name' => 'this',
                                                                 'offset' => '4',
                                                                 'type' => '28242204'
                                                               }
                                                      },
                                           'Return' => '6675',
                                           'ShortName' => 'display_name',
                                           'Source' => 'ScopeMetadata.cpp',
                                           'SourceLine' => '80'
                                         },
                            '2355034' => {
                                           'Class' => '2354715',
                                           'Const' => 1,
                                           'Header' => 'ScopeMetadata.h',
                                           'Line' => '103',
                                           'MnglName' => '_ZNK5unity6scopes13ScopeMetadata11descriptionB5cxx11Ev',
                                           'Param' => {
                                                        '0' => {
                                                                 'name' => 'this',
                                                                 'offset' => '4',
                                                                 'type' => '28242204'
                                                               }
                                                      },
                                           'Return' => '6675',
                                           'ShortName' => 'description',
                                           'Source' => 'ScopeMetadata.cpp',
                                           'SourceLine' => '85'
                                         },
                            '2355064' => {
                                           'Class' => '2354715',
                                           'Const' => 1,
                                           'Header' => 'ScopeMetadata.h',
                                           'Line' => '109',
                                           'MnglName' => '_ZNK5unity6scopes13ScopeMetadata6authorB5cxx11Ev',
                                           'Param' => {
                                                        '0' => {
                                                                 'name' => 'this',
                                                                 'offset' => '4',
                                                                 'type' => '28242204'
                                                               }
                                                      },
                                           'Return' => '6675',
                                           'ShortName' => 'author',
                                           'Source' => 'ScopeMetadata.cpp',
                                           'SourceLine' => '90'
                                         },
                            '2355094' => {
                                           'Class' => '2354715',
                                           'Const' => 1,
                                           'Header' => 'ScopeMetadata.h',
                                           'Line' => '115',
                                           'MnglName' => '_ZNK5unity6scopes13ScopeMetadata3artB5cxx11Ev',
                                           'Param' => {
                                                        '0' => {
                                                                 'name' => 'this',
                                                                 'offset' => '4',
                                                                 'type' => '28242204'
                                                               }
                                                      },
                                           'Return' => '6675',
                                           'ShortName' => 'art',
                                           'Source' => 'ScopeMetadata.cpp',
                                           'SourceLine' => '95'
                                         },
                            '2355124' => {
                                           'Class' => '2354715',
                                           'Const' => 1,
                                           'Header' => 'ScopeMetadata.h',
                                           'Line' => '121',
                                           'MnglName' => '_ZNK5unity6scopes13ScopeMetadata4iconB5cxx11Ev',
                                           'Param' => {
                                                        '0' => {
                                                                 'name' => 'this',
                                                                 'offset' => '4',
                                                                 'type' => '28242204'
                                                               }
                                                      },
                                           'Return' => '6675',
                                           'ShortName' => 'icon',
                                           'Source' => 'ScopeMetadata.cpp',
                                           'SourceLine' => '100'
                                         },
                            '2355154' => {
                                           'Class' => '2354715',
                                           'Const' => 1,
                                           'Header' => 'ScopeMetadata.h',
                                           'Line' => '127',
                                           'MnglName' => '_ZNK5unity6scopes13ScopeMetadata11search_hintB5cxx11Ev',
                                           'Param' => {
                                                        '0' => {
                                                                 'name' => 'this',
                                                                 'offset' => '4',
                                                                 'type' => '28242204'
                                                               }
                                                      },
                                           'Return' => '6675',
                                           'ShortName' => 'search_hint',
                                           'Source' => 'ScopeMetadata.cpp',
                                           'SourceLine' => '105'
                                         },
                            '2355184' => {
                                           'Class' => '2354715',
                                           'Const' => 1,
                                           'Header' => 'ScopeMetadata.h',
                                           'Line' => '133',
                                           'MnglName' => '_ZNK5unity6scopes13ScopeMetadata7hot_keyB5cxx11Ev',
                                           'Param' => {
                                                        '0' => {
                                                                 'name' => 'this',
                                                                 'offset' => '4',
                                                                 'type' => '28242204'
                                                               }
                                                      },
                                           'Return' => '6675',
                                           'ShortName' => 'hot_key',
                                           'Source' => 'ScopeMetadata.cpp',
                                           'SourceLine' => '110'
                                         },
                            '2355214' => {
                                           'Class' => '2354715',
                                           'Const' => 1,
                                           'Header' => 'ScopeMetadata.h',
                                           'Line' => '139',
                                           'MnglName' => '_ZNK5unity6scopes13ScopeMetadata9invisibleEv',
                                           'Param' => {
                                                        '0' => {
                                                                 'name' => 'this',
                                                                 'offset' => '0',
                                                                 'type' => '28242204'
                                                               }
                                                      },
                                           'Return' => '36673',
                                           'ShortName' => 'invisible',
                                           'Source' => 'ScopeMetadata.cpp',
                                           'SourceLine' => '115'
                                         },
                            '2355244' => {
                                           'Class' => '2354715',
                                           'Const' => 1,
                                           'Header' => 'ScopeMetadata.h',
                                           'Line' => '147',
                                           'MnglName' => '_ZNK5unity6scopes13ScopeMetadata21appearance_attributesB5cxx11Ev',
                                           'Param' => {
                                                        '0' => {
                                                                 'name' => 'this',
                                                                 'offset' => '4',
                                                                 'type' => '28242204'
                                                               }
                                                      },
                                           'Return' => '105481',
                                           'ShortName' => 'appearance_attributes',
                                           'Source' => 'ScopeMetadata.cpp',
                                           'SourceLine' => '120'
                                         },
                            '2355274' => {
                                           'Class' => '2354715',
                                           'Const' => 1,
                                           'Header' => 'ScopeMetadata.h',
                                           'Line' => '157',
                                           'MnglName' => '_ZNK5unity6scopes13ScopeMetadata15scope_directoryB5cxx11Ev',
                                           'Param' => {
                                                        '0' => {
                                                                 'name' => 'this',
                                                                 'offset' => '4',
                                                                 'type' => '28242204'
                                                               }
                                                      },
                                           'Return' => '6675',
                                           'ShortName' => 'scope_directory',
                                           'Source' => 'ScopeMetadata.cpp',
                                           'SourceLine' => '125'
                                         },
                            '2355304' => {
                                           'Class' => '2354715',
                                           'Const' => 1,
                                           'Header' => 'ScopeMetadata.h',
                                           'Line' => '163',
                                           'MnglName' => '_ZNK5unity6scopes13ScopeMetadata9serializeB5cxx11Ev',
                                           'Param' => {
                                                        '0' => {
                                                                 'name' => 'this',
                                                                 'offset' => '4',
                                                                 'type' => '28242204'
                                                               }
                                                      },
                                           'Return' => '105481',
                                           'ShortName' => 'serialize',
                                           'Source' => 'ScopeMetadata.cpp',
                                           'SourceLine' => '130'
                                         },
                            '2355334' => {
                                           'Class' => '2354715',
                                           'Const' => 1,
                                           'Header' => 'ScopeMetadata.h',
                                           'Line' => '169',
                                           'MnglName' => '_ZNK5unity6scopes13ScopeMetadata16results_ttl_typeEv',
                                           'Param' => {
                                                        '0' => {
                                                                 'name' => 'this',
                                                                 'offset' => '0',
                                                                 'type' => '28242204'
                                                               }
                                                      },
                                           'Return' => '2354727',
                                           'ShortName' => 'results_ttl_type',
                                           'Source' => 'ScopeMetadata.cpp',
                                           'SourceLine' => '135'
                                         },
                            '2355364' => {
                                           'Class' => '2354715',
                                           'Const' => 1,
                                           'Header' => 'ScopeMetadata.h',
                                           'Line' => '180',
                                           'MnglName' => '_ZNK5unity6scopes13ScopeMetadata20settings_definitionsEv',
                                           'Param' => {
                                                        '0' => {
                                                                 'name' => 'this',
                                                                 'offset' => '4',
                                                                 'type' => '28242204'
                                                               }
                                                      },
                                           'Return' => '105497',
                                           'ShortName' => 'settings_definitions',
                                           'Source' => 'ScopeMetadata.cpp',
                                           'SourceLine' => '140'
                                         },
                            '2355394' => {
                                           'Class' => '2354715',
                                           'Const' => 1,
                                           'Header' => 'ScopeMetadata.h',
                                           'Line' => '186',
                                           'MnglName' => '_ZNK5unity6scopes13ScopeMetadata20location_data_neededEv',
                                           'Param' => {
                                                        '0' => {
                                                                 'name' => 'this',
                                                                 'offset' => '0',
                                                                 'type' => '28242204'
                                                               }
                                                      },
                                           'Return' => '36673',
                                           'ShortName' => 'location_data_needed',
                                           'Source' => 'ScopeMetadata.cpp',
                                           'SourceLine' => '145'
                                         },
                            '2355424' => {
                                           'Class' => '2354715',
                                           'Const' => 1,
                                           'Header' => 'ScopeMetadata.h',
                                           'Line' => '198',
                                           'MnglName' => '_ZNK5unity6scopes13ScopeMetadata15child_scope_idsB5cxx11Ev',
                                           'Param' => {
                                                        '0' => {
                                                                 'name' => 'this',
                                                                 'offset' => '4',
                                                                 'type' => '28242204'
                                                               }
                                                      },
                                           'Return' => '479784',
                                           'ShortName' => 'child_scope_ids',
                                           'Source' => 'ScopeMetadata.cpp',
                                           'SourceLine' => '150'
                                         },
                            '2355454' => {
                                           'Class' => '2354715',
                                           'Const' => 1,
                                           'Header' => 'ScopeMetadata.h',
                                           'Line' => '206',
                                           'MnglName' => '_ZNK5unity6scopes13ScopeMetadata7versionEv',
                                           'Param' => {
                                                        '0' => {
                                                                 'name' => 'this',
                                                                 'offset' => '0',
                                                                 'type' => '28242204'
                                                               }
                                                      },
                                           'Return' => '36631',
                                           'ShortName' => 'version',
                                           'Source' => 'ScopeMetadata.cpp',
                                           'SourceLine' => '155'
                                         },
                            '2355484' => {
                                           'Class' => '2354715',
                                           'Const' => 1,
                                           'Header' => 'ScopeMetadata.h',
                                           'Line' => '216',
                                           'MnglName' => '_ZNK5unity6scopes13ScopeMetadata8keywordsB5cxx11Ev',
                                           'Param' => {
                                                        '0' => {
                                                                 'name' => 'this',
                                                                 'offset' => '4',
                                                                 'type' => '28242204'
                                                               }
                                                      },
                                           'Return' => '227367',
                                           'ShortName' => 'keywords',
                                           'Source' => 'ScopeMetadata.cpp',
                                           'SourceLine' => '160'
                                         },
                            '2355514' => {
                                           'Class' => '2354715',
                                           'Const' => 1,
                                           'Header' => 'ScopeMetadata.h',
                                           'Line' => '222',
                                           'MnglName' => '_ZNK5unity6scopes13ScopeMetadata13is_aggregatorEv',
                                           'Param' => {
                                                        '0' => {
                                                                 'name' => 'this',
                                                                 'offset' => '0',
                                                                 'type' => '28242204'
                                                               }
                                                      },
                                           'Return' => '36673',
                                           'ShortName' => 'is_aggregator',
                                           'Source' => 'ScopeMetadata.cpp',
                                           'SourceLine' => '165'
                                         },
                            '23761882' => {
                                            'Class' => '12560500',
                                            'Header' => 'SwitchFilter.h',
                                            'Line' => '57',
                                            'MnglName' => '_ZN5unity6scopes12experimental12SwitchFilter6createERKNSt7__cxx1112basic_stringIcSt11char_traitsIcESaIcEEESA_',
                                            'Param' => {
                                                         '0' => {
                                                                  'name' => 'id',
                                                                  'offset' => '4',
                                                                  'type' => '42113'
                                                                },
                                                         '1' => {
                                                                  'name' => 'label',
                                                                  'offset' => '8',
                                                                  'type' => '42113'
                                                                }
                                                       },
                                            'Return' => '23761810',
                                            'ShortName' => 'create',
                                            'Source' => 'SwitchFilter.cpp',
                                            'SourceLine' => '31',
                                            'Static' => 1
                                          },
                            '23761913' => {
                                            'Class' => '12560500',
                                            'Const' => 1,
                                            'Header' => 'SwitchFilter.h',
                                            'Line' => '63',
                                            'MnglName' => '_ZNK5unity6scopes12experimental12SwitchFilter5labelB5cxx11Ev',
                                            'Param' => {
                                                         '0' => {
                                                                  'name' => 'this',
                                                                  'offset' => '4',
                                                                  'type' => '28526834'
                                                                }
                                                       },
                                            'Return' => '6675',
                                            'ShortName' => 'label',
                                            'Source' => 'SwitchFilter.cpp',
                                            'SourceLine' => '36'
                                          },
                            '23761943' => {
                                            'Class' => '12560500',
                                            'Const' => 1,
                                            'Header' => 'SwitchFilter.h',
                                            'Line' => '73',
                                            'MnglName' => '_ZNK5unity6scopes12experimental12SwitchFilter5is_onERKNS0_11FilterStateE',
                                            'Param' => {
                                                         '0' => {
                                                                  'name' => 'this',
                                                                  'offset' => '0',
                                                                  'type' => '28526834'
                                                                },
                                                         '1' => {
                                                                  'name' => 'filter_state',
                                                                  'offset' => '4',
                                                                  'type' => '109625'
                                                                }
                                                       },
                                            'Return' => '36673',
                                            'ShortName' => 'is_on',
                                            'Source' => 'SwitchFilter.cpp',
                                            'SourceLine' => '41'
                                          },
                            '23761978' => {
                                            'Class' => '12560500',
                                            'Const' => 1,
                                            'Header' => 'SwitchFilter.h',
                                            'Line' => '81',
                                            'MnglName' => '_ZNK5unity6scopes12experimental12SwitchFilter12update_stateERNS0_11FilterStateEb',
                                            'Param' => {
                                                         '0' => {
                                                                  'name' => 'this',
                                                                  'offset' => '0',
                                                                  'type' => '28526834'
                                                                },
                                                         '1' => {
                                                                  'name' => 'filter_state',
                                                                  'offset' => '4',
                                                                  'type' => '109637'
                                                                },
                                                         '2' => {
                                                                  'name' => 'active',
                                                                  'offset' => '8',
                                                                  'type' => '36673'
                                                                }
                                                       },
                                            'Return' => '1',
                                            'ShortName' => 'update_state',
                                            'Source' => 'SwitchFilter.cpp',
                                            'SourceLine' => '46'
                                          },
                            '23762014' => {
                                            'Class' => '12560500',
                                            'Header' => 'SwitchFilter.h',
                                            'Line' => '89',
                                            'MnglName' => '_ZN5unity6scopes12experimental12SwitchFilter12update_stateERNS0_11FilterStateERKNSt7__cxx1112basic_stringIcSt11char_traitsIcESaIcEEEb',
                                            'Param' => {
                                                         '0' => {
                                                                  'name' => 'filter_state',
                                                                  'offset' => '0',
                                                                  'type' => '109637'
                                                                },
                                                         '1' => {
                                                                  'name' => 'filter_id',
                                                                  'offset' => '4',
                                                                  'type' => '42113'
                                                                },
                                                         '2' => {
                                                                  'name' => 'active',
                                                                  'offset' => '8',
                                                                  'type' => '36673'
                                                                }
                                                       },
                                            'Return' => '1',
                                            'ShortName' => 'update_state',
                                            'Source' => 'SwitchFilter.cpp',
                                            'SourceLine' => '51',
                                            'Static' => 1
                                          },
                            '23762076' => {
                                            'Class' => '12560500',
                                            'Const' => 1,
                                            'Header' => 'SwitchFilter.h',
                                            'Line' => '93',
                                            'MnglName' => '_ZNK5unity6scopes12experimental12SwitchFilter3fwdEv',
                                            'Param' => {
                                                         '0' => {
                                                                  'name' => 'this',
                                                                  'offset' => '0',
                                                                  'type' => '28526834'
                                                                }
                                                       },
                                            'Private' => 1,
                                            'Return' => '23768513',
                                            'ShortName' => 'fwd',
                                            'Source' => 'SwitchFilter.cpp',
                                            'SourceLine' => '61'
                                          },
                            '23777278' => {
                                            'Class' => '12560500',
                                            'Destructor' => 1,
                                            'Header' => 'SwitchFilter.h',
                                            'Line' => '44',
                                            'MnglName' => '_ZN5unity6scopes12experimental12SwitchFilterD2Ev',
                                            'Param' => {
                                                         '0' => {
                                                                  'name' => 'this',
                                                                  'offset' => '0',
                                                                  'type' => '23768894'
                                                                }
                                                       },
                                            'ShortName' => 'SwitchFilter',
                                            'Virt' => 1
                                          },
                            '23777279' => {
                                            'Class' => '12560500',
                                            'Destructor' => 1,
                                            'Header' => 'SwitchFilter.h',
                                            'Line' => '44',
                                            'MnglName' => '_ZN5unity6scopes12experimental12SwitchFilterD1Ev',
                                            'Param' => {
                                                         '0' => {
                                                                  'name' => 'this',
                                                                  'offset' => '0',
                                                                  'type' => '23768894'
                                                                }
                                                       },
                                            'ShortName' => 'SwitchFilter',
                                            'Virt' => 1
                                          },
                            '23777322' => {
                                            'Class' => '12560500',
                                            'Destructor' => 1,
                                            'Header' => 'SwitchFilter.h',
                                            'Line' => '44',
                                            'MnglName' => '_ZN5unity6scopes12experimental12SwitchFilterD0Ev',
                                            'Param' => {
                                                         '0' => {
                                                                  'name' => 'this',
                                                                  'offset' => '0',
                                                                  'type' => '23768894'
                                                                }
                                                       },
                                            'ShortName' => 'SwitchFilter',
                                            'Virt' => 1
                                          },
                            '23777323' => {
                                            'Class' => '12560500',
                                            'Destructor' => 1,
                                            'Header' => 'SwitchFilter.h',
                                            'Line' => '44',
                                            'MnglName' => '_ZN5unity6scopes12experimental12SwitchFilterD1Ev',
                                            'Param' => {
                                                         '0' => {
                                                                  'name' => 'this',
                                                                  'offset' => '0',
                                                                  'type' => '23768894'
                                                                }
                                                       },
                                            'ShortName' => 'SwitchFilter',
                                            'Virt' => 1
                                          },
                            '24155693' => {
                                            'Class' => '12560409',
                                            'Header' => 'ValueSliderFilter.h',
                                            'Line' => '82',
                                            'MnglName' => '_ZN5unity6scopes12experimental17ValueSliderFilter6createERKNSt7__cxx1112basic_stringIcSt11char_traitsIcESaIcEEESA_SA_dd',
                                            'Param' => {
                                                         '0' => {
                                                                  'name' => 'id',
                                                                  'offset' => '4',
                                                                  'type' => '42113'
                                                                },
                                                         '1' => {
                                                                  'name' => 'label',
                                                                  'offset' => '8',
                                                                  'type' => '42113'
                                                                },
                                                         '2' => {
                                                                  'name' => 'label_template',
                                                                  'offset' => '12',
                                                                  'type' => '42113'
                                                                },
                                                         '3' => {
                                                                  'name' => 'min',
                                                                  'offset' => '16',
                                                                  'type' => '36659'
                                                                },
                                                         '4' => {
                                                                  'name' => 'max',
                                                                  'offset' => '24',
                                                                  'type' => '36659'
                                                                }
                                                       },
                                            'Return' => '24155621',
                                            'ShortName' => 'create',
                                            'Source' => 'ValueSliderFilter.cpp',
                                            'SourceLine' => '36',
                                            'Static' => 1
                                          },
                            '24155739' => {
                                            'Class' => '12560409',
                                            'Header' => 'ValueSliderFilter.h',
                                            'Line' => '89',
                                            'MnglName' => '_ZN5unity6scopes12experimental17ValueSliderFilter15set_slider_typeENS2_10SliderTypeE',
                                            'Param' => {
                                                         '0' => {
                                                                  'name' => 'this',
                                                                  'offset' => '0',
                                                                  'type' => '24163624'
                                                                },
                                                         '1' => {
                                                                  'name' => 'tp',
                                                                  'offset' => '4',
                                                                  'type' => '24155571'
                                                                }
                                                       },
                                            'Return' => '1',
                                            'ShortName' => 'set_slider_type',
                                            'Source' => 'ValueSliderFilter.cpp',
                                            'SourceLine' => '41'
                                          },
                            '24155770' => {
                                            'Class' => '12560409',
                                            'Header' => 'ValueSliderFilter.h',
                                            'Line' => '99',
                                            'MnglName' => '_ZN5unity6scopes12experimental17ValueSliderFilter17set_default_valueEd',
                                            'Param' => {
                                                         '0' => {
                                                                  'name' => 'this',
                                                                  'offset' => '0',
                                                                  'type' => '24163624'
                                                                },
                                                         '1' => {
                                                                  'name' => 'val',
                                                                  'offset' => '4',
                                                                  'type' => '36659'
                                                                }
                                                       },
                                            'Return' => '1',
                                            'ShortName' => 'set_default_value',
                                            'Source' => 'ValueSliderFilter.cpp',
                                            'SourceLine' => '46'
                                          },
                            '24155801' => {
                                            'Class' => '12560409',
                                            'Const' => 1,
                                            'Header' => 'ValueSliderFilter.h',
                                            'Line' => '106',
                                            'MnglName' => '_ZNK5unity6scopes12experimental17ValueSliderFilter11slider_typeEv',
                                            'Param' => {
                                                         '0' => {
                                                                  'name' => 'this',
                                                                  'offset' => '0',
                                                                  'type' => '28553772'
                                                                }
                                                       },
                                            'Return' => '24155571',
                                            'ShortName' => 'slider_type',
                                            'Source' => 'ValueSliderFilter.cpp',
                                            'SourceLine' => '51'
                                          },
                            '24155831' => {
                                            'Class' => '12560409',
                                            'Const' => 1,
                                            'Header' => 'ValueSliderFilter.h',
                                            'Line' => '113',
                                            'MnglName' => '_ZNK5unity6scopes12experimental17ValueSliderFilter13default_valueEv',
                                            'Param' => {
                                                         '0' => {
                                                                  'name' => 'this',
                                                                  'offset' => '0',
                                                                  'type' => '28553772'
                                                                }
                                                       },
                                            'Return' => '36659',
                                            'ShortName' => 'default_value',
                                            'Source' => 'ValueSliderFilter.cpp',
                                            'SourceLine' => '56'
                                          },
                            '24155861' => {
                                            'Class' => '12560409',
                                            'Const' => 1,
                                            'Header' => 'ValueSliderFilter.h',
                                            'Line' => '120',
                                            'MnglName' => '_ZNK5unity6scopes12experimental17ValueSliderFilter3minEv',
                                            'Param' => {
                                                         '0' => {
                                                                  'name' => 'this',
                                                                  'offset' => '0',
                                                                  'type' => '28553772'
                                                                }
                                                       },
                                            'Return' => '36659',
                                            'ShortName' => 'min',
                                            'Source' => 'ValueSliderFilter.cpp',
                                            'SourceLine' => '61'
                                          },
                            '24155891' => {
                                            'Class' => '12560409',
                                            'Const' => 1,
                                            'Header' => 'ValueSliderFilter.h',
                                            'Line' => '127',
                                            'MnglName' => '_ZNK5unity6scopes12experimental17ValueSliderFilter3maxEv',
                                            'Param' => {
                                                         '0' => {
                                                                  'name' => 'this',
                                                                  'offset' => '0',
                                                                  'type' => '28553772'
                                                                }
                                                       },
                                            'Return' => '36659',
                                            'ShortName' => 'max',
                                            'Source' => 'ValueSliderFilter.cpp',
                                            'SourceLine' => '66'
                                          },
                            '24155921' => {
                                            'Class' => '12560409',
                                            'Const' => 1,
                                            'Header' => 'ValueSliderFilter.h',
                                            'Line' => '134',
                                            'MnglName' => '_ZNK5unity6scopes12experimental17ValueSliderFilter5labelB5cxx11Ev',
                                            'Param' => {
                                                         '0' => {
                                                                  'name' => 'this',
                                                                  'offset' => '4',
                                                                  'type' => '28553772'
                                                                }
                                                       },
                                            'Return' => '6675',
                                            'ShortName' => 'label',
                                            'Source' => 'ValueSliderFilter.cpp',
                                            'SourceLine' => '71'
                                          },
                            '24155951' => {
                                            'Class' => '12560409',
                                            'Const' => 1,
                                            'Header' => 'ValueSliderFilter.h',
                                            'Line' => '141',
                                            'MnglName' => '_ZNK5unity6scopes12experimental17ValueSliderFilter20value_label_templateB5cxx11Ev',
                                            'Param' => {
                                                         '0' => {
                                                                  'name' => 'this',
                                                                  'offset' => '4',
                                                                  'type' => '28553772'
                                                                }
                                                       },
                                            'Return' => '6675',
                                            'ShortName' => 'value_label_template',
                                            'Source' => 'ValueSliderFilter.cpp',
                                            'SourceLine' => '76'
                                          },
                            '24155981' => {
                                            'Class' => '12560409',
                                            'Const' => 1,
                                            'Header' => 'ValueSliderFilter.h',
                                            'Line' => '148',
                                            'MnglName' => '_ZNK5unity6scopes12experimental17ValueSliderFilter9has_valueERKNS0_11FilterStateE',
                                            'Param' => {
                                                         '0' => {
                                                                  'name' => 'this',
                                                                  'offset' => '0',
                                                                  'type' => '28553772'
                                                                },
                                                         '1' => {
                                                                  'name' => 'filter_state',
                                                                  'offset' => '4',
                                                                  'type' => '109625'
                                                                }
                                                       },
                                            'Return' => '36673',
                                            'ShortName' => 'has_value',
                                            'Source' => 'ValueSliderFilter.cpp',
                                            'SourceLine' => '81'
                                          },
                            '24156016' => {
                                            'Class' => '12560409',
                                            'Const' => 1,
                                            'Header' => 'ValueSliderFilter.h',
                                            'Line' => '156',
                                            'MnglName' => '_ZNK5unity6scopes12experimental17ValueSliderFilter5valueERKNS0_11FilterStateE',
                                            'Param' => {
                                                         '0' => {
                                                                  'name' => 'this',
                                                                  'offset' => '0',
                                                                  'type' => '28553772'
                                                                },
                                                         '1' => {
                                                                  'name' => 'filter_state',
                                                                  'offset' => '4',
                                                                  'type' => '109625'
                                                                }
                                                       },
                                            'Return' => '36659',
                                            'ShortName' => 'value',
                                            'Source' => 'ValueSliderFilter.cpp',
                                            'SourceLine' => '86'
                                          },
                            '24156051' => {
                                            'Class' => '12560409',
                                            'Const' => 1,
                                            'Header' => 'ValueSliderFilter.h',
                                            'Line' => '165',
                                            'MnglName' => '_ZNK5unity6scopes12experimental17ValueSliderFilter12update_stateERNS0_11FilterStateEd',
                                            'Param' => {
                                                         '0' => {
                                                                  'name' => 'this',
                                                                  'offset' => '0',
                                                                  'type' => '28553772'
                                                                },
                                                         '1' => {
                                                                  'name' => 'filter_state',
                                                                  'offset' => '4',
                                                                  'type' => '109637'
                                                                },
                                                         '2' => {
                                                                  'name' => 'value',
                                                                  'offset' => '8',
                                                                  'type' => '36659'
                                                                }
                                                       },
                                            'Return' => '1',
                                            'ShortName' => 'update_state',
                                            'Source' => 'ValueSliderFilter.cpp',
                                            'SourceLine' => '91'
                                          },
                            '24156087' => {
                                            'Class' => '12560409',
                                            'Header' => 'ValueSliderFilter.h',
                                            'Line' => '173',
                                            'MnglName' => '_ZN5unity6scopes12experimental17ValueSliderFilter12update_stateERNS0_11FilterStateERKNSt7__cxx1112basic_stringIcSt11char_traitsIcESaIcEEEd',
                                            'Param' => {
                                                         '0' => {
                                                                  'name' => 'filter_state',
                                                                  'offset' => '0',
                                                                  'type' => '109637'
                                                                },
                                                         '1' => {
                                                                  'name' => 'filter_id',
                                                                  'offset' => '4',
                                                                  'type' => '42113'
                                                                },
                                                         '2' => {
                                                                  'name' => 'value',
                                                                  'offset' => '8',
                                                                  'type' => '36659'
                                                                }
                                                       },
                                            'Return' => '1',
                                            'ShortName' => 'update_state',
                                            'Source' => 'ValueSliderFilter.cpp',
                                            'SourceLine' => '96',
                                            'Static' => 1
                                          },
                            '24156149' => {
                                            'Class' => '12560409',
                                            'Const' => 1,
                                            'Header' => 'ValueSliderFilter.h',
                                            'Line' => '177',
                                            'MnglName' => '_ZNK5unity6scopes12experimental17ValueSliderFilter3fwdEv',
                                            'Param' => {
                                                         '0' => {
                                                                  'name' => 'this',
                                                                  'offset' => '0',
                                                                  'type' => '28553772'
                                                                }
                                                       },
                                            'Private' => 1,
                                            'Return' => '24162706',
                                            'ShortName' => 'fwd',
                                            'Source' => 'ValueSliderFilter.cpp',
                                            'SourceLine' => '101'
                                          },
                            '24172839' => {
                                            'Class' => '12560409',
                                            'Destructor' => 1,
                                            'Header' => 'ValueSliderFilter.h',
                                            'Line' => '47',
                                            'MnglName' => '_ZN5unity6scopes12experimental17ValueSliderFilterD2Ev',
                                            'Param' => {
                                                         '0' => {
                                                                  'name' => 'this',
                                                                  'offset' => '0',
                                                                  'type' => '24163624'
                                                                }
                                                       },
                                            'ShortName' => 'ValueSliderFilter',
                                            'Virt' => 1
                                          },
                            '24172840' => {
                                            'Class' => '12560409',
                                            'Destructor' => 1,
                                            'Header' => 'ValueSliderFilter.h',
                                            'Line' => '47',
                                            'MnglName' => '_ZN5unity6scopes12experimental17ValueSliderFilterD1Ev',
                                            'Param' => {
                                                         '0' => {
                                                                  'name' => 'this',
                                                                  'offset' => '0',
                                                                  'type' => '24163624'
                                                                }
                                                       },
                                            'ShortName' => 'ValueSliderFilter',
                                            'Virt' => 1
                                          },
                            '24172883' => {
                                            'Class' => '12560409',
                                            'Destructor' => 1,
                                            'Header' => 'ValueSliderFilter.h',
                                            'Line' => '47',
                                            'MnglName' => '_ZN5unity6scopes12experimental17ValueSliderFilterD0Ev',
                                            'Param' => {
                                                         '0' => {
                                                                  'name' => 'this',
                                                                  'offset' => '0',
                                                                  'type' => '24163624'
                                                                }
                                                       },
                                            'ShortName' => 'ValueSliderFilter',
                                            'Virt' => 1
                                          },
                            '24172884' => {
                                            'Class' => '12560409',
                                            'Destructor' => 1,
                                            'Header' => 'ValueSliderFilter.h',
                                            'Line' => '47',
                                            'MnglName' => '_ZN5unity6scopes12experimental17ValueSliderFilterD1Ev',
                                            'Param' => {
                                                         '0' => {
                                                                  'name' => 'this',
                                                                  'offset' => '0',
                                                                  'type' => '24163624'
                                                                }
                                                       },
                                            'ShortName' => 'ValueSliderFilter',
                                            'Virt' => 1
                                          },
                            '24346694' => {
                                            'Class' => '24346609',
                                            'Header' => 'Statistics.h',
                                            'Line' => '125',
                                            'MnglName' => '_ZN5unity6scopes7testing19AndersonDarlingTest13for_normalityERKNS1_6SampleE',
                                            'Param' => {
                                                         '0' => {
                                                                  'name' => 'this',
                                                                  'offset' => '4',
                                                                  'type' => '25605697'
                                                                },
                                                         '1' => {
                                                                  'name' => 'result',
                                                                  'offset' => '8',
                                                                  'type' => '24348383'
                                                                }
                                                       },
                                            'Return' => '24346621',
                                            'ShortName' => 'for_normality',
                                            'Source' => 'Statistics.cpp',
                                            'SourceLine' => '37'
                                          },
                            '24346952' => {
                                            'Class' => '24346737',
                                            'Const' => 1,
                                            'Header' => 'Statistics.h',
                                            'Line' => '55',
                                            'MnglName' => '_ZNK5unity6scopes7testing6Sample8get_sizeEv',
                                            'Param' => {
                                                         '0' => {
                                                                  'name' => 'this',
                                                                  'type' => '24430908'
                                                                }
                                                       },
                                            'PureVirt' => 1,
                                            'Return' => '24346766',
                                            'ShortName' => 'get_size',
                                            'VirtPos' => '2'
                                          },
                            '24346991' => {
                                            'Class' => '24346737',
                                            'Const' => 1,
                                            'Header' => 'Statistics.h',
                                            'Line' => '58',
                                            'MnglName' => '_ZNK5unity6scopes7testing6Sample8get_meanEv',
                                            'Param' => {
                                                         '0' => {
                                                                  'name' => 'this',
                                                                  'type' => '24430908'
                                                                }
                                                       },
                                            'PureVirt' => 1,
                                            'Return' => '24346754',
                                            'ShortName' => 'get_mean',
                                            'VirtPos' => '3'
                                          },
                            '24347030' => {
                                            'Class' => '24346737',
                                            'Const' => 1,
                                            'Header' => 'Statistics.h',
                                            'Line' => '61',
                                            'MnglName' => '_ZNK5unity6scopes7testing6Sample12get_varianceEv',
                                            'Param' => {
                                                         '0' => {
                                                                  'name' => 'this',
                                                                  'type' => '24430908'
                                                                }
                                                       },
                                            'PureVirt' => 1,
                                            'Return' => '24346754',
                                            'ShortName' => 'get_variance',
                                            'VirtPos' => '4'
                                          },
                            '24347069' => {
                                            'Class' => '24346737',
                                            'Const' => 1,
                                            'Header' => 'Statistics.h',
                                            'Line' => '64',
                                            'MnglName' => '_ZNK5unity6scopes7testing6Sample9enumerateERKSt8functionIFvdEE',
                                            'Param' => {
                                                         '0' => {
                                                                  'name' => 'this',
                                                                  'type' => '24430908'
                                                                },
                                                         '1' => {
                                                                  'name' => 'p1',
                                                                  'type' => '24430584'
                                                                }
                                                       },
                                            'PureVirt' => 1,
                                            'Return' => '1',
                                            'ShortName' => 'enumerate',
                                            'VirtPos' => '5'
                                          },
                            '24347320' => {
                                            'Class' => '24347200',
                                            'Header' => 'Statistics.h',
                                            'Line' => '186',
                                            'MnglName' => '_ZN5unity6scopes7testing13StudentsTTest10one_sampleERKNS1_6SampleEdd',
                                            'Param' => {
                                                         '0' => {
                                                                  'name' => 'this',
                                                                  'offset' => '4',
                                                                  'type' => '25601079'
                                                                },
                                                         '1' => {
                                                                  'name' => 'sample',
                                                                  'offset' => '8',
                                                                  'type' => '24348383'
                                                                },
                                                         '2' => {
                                                                  'name' => 'mean',
                                                                  'offset' => '12',
                                                                  'type' => '24346754'
                                                                },
                                                         '3' => {
                                                                  'name' => 'std_dev',
                                                                  'offset' => '20',
                                                                  'type' => '24346754'
                                                                }
                                                       },
                                            'Return' => '24347212',
                                            'ShortName' => 'one_sample',
                                            'Source' => 'Statistics.cpp',
                                            'SourceLine' => '90'
                                          },
                            '24347364' => {
                                            'Class' => '24347200',
                                            'Header' => 'Statistics.h',
                                            'Line' => '197',
                                            'MnglName' => '_ZN5unity6scopes7testing13StudentsTTest23two_independent_samplesERKNS1_6SampleES5_',
                                            'Param' => {
                                                         '0' => {
                                                                  'name' => 'this',
                                                                  'offset' => '4',
                                                                  'type' => '25601079'
                                                                },
                                                         '1' => {
                                                                  'name' => 'reference',
                                                                  'offset' => '8',
                                                                  'type' => '24348383'
                                                                },
                                                         '2' => {
                                                                  'name' => 'sample',
                                                                  'offset' => '12',
                                                                  'type' => '24348383'
                                                                }
                                                       },
                                            'Return' => '24347212',
                                            'ShortName' => 'two_independent_samples',
                                            'Source' => 'Statistics.cpp',
                                            'SourceLine' => '124'
                                          },
                            '24347664' => {
                                            'Class' => '24347447',
                                            'Const' => 1,
                                            'Header' => 'Benchmark.h',
                                            'MnglName' => '_ZNK5unity6scopes7testing9Benchmark6Result6Timing8get_sizeEv',
                                            'Param' => {
                                                         '0' => {
                                                                  'name' => 'this',
                                                                  'offset' => '0',
                                                                  'type' => '24503967'
                                                                }
                                                       },
                                            'Return' => '24346766',
                                            'ShortName' => 'get_size',
                                            'Source' => 'Benchmark.cpp',
                                            'SourceLine' => '149',
                                            'Virt' => 1,
                                            'VirtPos' => '2'
                                          },
                            '24347702' => {
                                            'Class' => '24347447',
                                            'Const' => 1,
                                            'Header' => 'Benchmark.h',
                                            'MnglName' => '_ZNK5unity6scopes7testing9Benchmark6Result6Timing8get_meanEv',
                                            'Param' => {
                                                         '0' => {
                                                                  'name' => 'this',
                                                                  'offset' => '0',
                                                                  'type' => '24503967'
                                                                }
                                                       },
                                            'Return' => '24346754',
                                            'ShortName' => 'get_mean',
                                            'Source' => 'Benchmark.cpp',
                                            'SourceLine' => '154',
                                            'Virt' => 1,
                                            'VirtPos' => '3'
                                          },
                            '24347740' => {
                                            'Class' => '24347447',
                                            'Const' => 1,
                                            'Header' => 'Benchmark.h',
                                            'MnglName' => '_ZNK5unity6scopes7testing9Benchmark6Result6Timing12get_varianceEv',
                                            'Param' => {
                                                         '0' => {
                                                                  'name' => 'this',
                                                                  'offset' => '0',
                                                                  'type' => '24503967'
                                                                }
                                                       },
                                            'Return' => '24346754',
                                            'ShortName' => 'get_variance',
                                            'Source' => 'Benchmark.cpp',
                                            'SourceLine' => '159',
                                            'Virt' => 1,
                                            'VirtPos' => '4'
                                          },
                            '24347778' => {
                                            'Class' => '24347447',
                                            'Const' => 1,
                                            'Header' => 'Benchmark.h',
                                            'MnglName' => '_ZNK5unity6scopes7testing9Benchmark6Result6Timing9enumerateERKSt8functionIFvdEE',
                                            'Param' => {
                                                         '0' => {
                                                                  'name' => 'this',
                                                                  'offset' => '0',
                                                                  'type' => '24503967'
                                                                },
                                                         '1' => {
                                                                  'name' => 'enumerator',
                                                                  'offset' => '4',
                                                                  'type' => '24430584'
                                                                }
                                                       },
                                            'Return' => '1',
                                            'ShortName' => 'enumerate',
                                            'Source' => 'Benchmark.cpp',
                                            'SourceLine' => '164',
                                            'Virt' => 1,
                                            'VirtPos' => '5'
                                          },
                            '24347817' => {
                                            'Class' => '24347447',
                                            'Const' => 1,
                                            'Header' => 'Benchmark.h',
                                            'MnglName' => '_ZNK5unity6scopes7testing9Benchmark6Result6Timing38is_significantly_faster_than_referenceERKS4_d',
                                            'Param' => {
                                                         '0' => {
                                                                  'name' => 'this',
                                                                  'offset' => '0',
                                                                  'type' => '24503967'
                                                                },
                                                         '1' => {
                                                                  'name' => 'reference',
                                                                  'offset' => '4',
                                                                  'type' => '24430563'
                                                                },
                                                         '2' => {
                                                                  'name' => 'alpha',
                                                                  'offset' => '8',
                                                                  'type' => '36659'
                                                                }
                                                       },
                                            'Return' => '36673',
                                            'ShortName' => 'is_significantly_faster_than_reference',
                                            'Source' => 'Benchmark.cpp',
                                            'SourceLine' => '170'
                                          },
                            '24347856' => {
                                            'Class' => '24347447',
                                            'Const' => 1,
                                            'Header' => 'Benchmark.h',
                                            'MnglName' => '_ZNK5unity6scopes7testing9Benchmark6Result6Timing38is_significantly_faster_than_referenceEddd',
                                            'Param' => {
                                                         '0' => {
                                                                  'name' => 'this',
                                                                  'offset' => '0',
                                                                  'type' => '24503967'
                                                                },
                                                         '1' => {
                                                                  'name' => 'mean',
                                                                  'offset' => '4',
                                                                  'type' => '36659'
                                                                },
                                                         '2' => {
                                                                  'name' => 'std_dev',
                                                                  'offset' => '12',
                                                                  'type' => '36659'
                                                                },
                                                         '3' => {
                                                                  'name' => 'alpha',
                                                                  'offset' => '20',
                                                                  'type' => '36659'
                                                                }
                                                       },
                                            'Return' => '36673',
                                            'ShortName' => 'is_significantly_faster_than_reference',
                                            'Source' => 'Benchmark.cpp',
                                            'SourceLine' => '197'
                                          },
                            '24347900' => {
                                            'Class' => '24347447',
                                            'Const' => 1,
                                            'Header' => 'Benchmark.h',
                                            'MnglName' => '_ZNK5unity6scopes7testing9Benchmark6Result6Timing38is_significantly_slower_than_referenceERKS4_d',
                                            'Param' => {
                                                         '0' => {
                                                                  'name' => 'this',
                                                                  'offset' => '0',
                                                                  'type' => '24503967'
                                                                },
                                                         '1' => {
                                                                  'name' => 'reference',
                                                                  'offset' => '4',
                                                                  'type' => '24430563'
                                                                },
                                                         '2' => {
                                                                  'name' => 'alpha',
                                                                  'offset' => '8',
                                                                  'type' => '36659'
                                                                }
                                                       },
                                            'Return' => '36673',
                                            'ShortName' => 'is_significantly_slower_than_reference',
                                            'Source' => 'Benchmark.cpp',
                                            'SourceLine' => '216'
                                          },
                            '24347939' => {
                                            'Class' => '24347447',
                                            'Const' => 1,
                                            'Header' => 'Benchmark.h',
                                            'MnglName' => '_ZNK5unity6scopes7testing9Benchmark6Result6Timing38is_significantly_slower_than_referenceEddd',
                                            'Param' => {
                                                         '0' => {
                                                                  'name' => 'this',
                                                                  'offset' => '0',
                                                                  'type' => '24503967'
                                                                },
                                                         '1' => {
                                                                  'name' => 'mean',
                                                                  'offset' => '4',
                                                                  'type' => '36659'
                                                                },
                                                         '2' => {
                                                                  'name' => 'std_dev',
                                                                  'offset' => '12',
                                                                  'type' => '36659'
                                                                },
                                                         '3' => {
                                                                  'name' => 'alpha',
                                                                  'offset' => '20',
                                                                  'type' => '36659'
                                                                }
                                                       },
                                            'Return' => '36673',
                                            'ShortName' => 'is_significantly_slower_than_reference',
                                            'Source' => 'Benchmark.cpp',
                                            'SourceLine' => '243'
                                          },
                            '24348059' => {
                                            'Class' => '24347421',
                                            'Header' => 'Benchmark.h',
                                            'Line' => '150',
                                            'MnglName' => '_ZN5unity6scopes7testing9Benchmark6Result9load_fromERSi',
                                            'Param' => {
                                                         '0' => {
                                                                  'name' => 'this',
                                                                  'offset' => '0',
                                                                  'type' => '24428083'
                                                                },
                                                         '1' => {
                                                                  'name' => 'in',
                                                                  'offset' => '4',
                                                                  'type' => '12992889'
                                                                }
                                                       },
                                            'Return' => '1',
                                            'ShortName' => 'load_from',
                                            'Source' => 'Benchmark.cpp',
                                            'SourceLine' => '125'
                                          },
                            '24348089' => {
                                            'Class' => '24347421',
                                            'Header' => 'Benchmark.h',
                                            'Line' => '157',
                                            'MnglName' => '_ZN5unity6scopes7testing9Benchmark6Result7save_toERSo',
                                            'Param' => {
                                                         '0' => {
                                                                  'name' => 'this',
                                                                  'offset' => '0',
                                                                  'type' => '24428083'
                                                                },
                                                         '1' => {
                                                                  'name' => 'out',
                                                                  'offset' => '4',
                                                                  'type' => '24349212'
                                                                }
                                                       },
                                            'Return' => '1',
                                            'ShortName' => 'save_to',
                                            'Source' => 'Benchmark.cpp',
                                            'SourceLine' => '137'
                                          },
                            '24348119' => {
                                            'Class' => '24347421',
                                            'Header' => 'Benchmark.h',
                                            'Line' => '164',
                                            'MnglName' => '_ZN5unity6scopes7testing9Benchmark6Result13load_from_xmlERSi',
                                            'Param' => {
                                                         '0' => {
                                                                  'name' => 'this',
                                                                  'offset' => '0',
                                                                  'type' => '24428083'
                                                                },
                                                         '1' => {
                                                                  'name' => 'in',
                                                                  'offset' => '4',
                                                                  'type' => '12992889'
                                                                }
                                                       },
                                            'Return' => '1',
                                            'ShortName' => 'load_from_xml',
                                            'Source' => 'Benchmark.cpp',
                                            'SourceLine' => '101'
                                          },
                            '24348149' => {
                                            'Class' => '24347421',
                                            'Header' => 'Benchmark.h',
                                            'Line' => '171',
                                            'MnglName' => '_ZN5unity6scopes7testing9Benchmark6Result11save_to_xmlERSo',
                                            'Param' => {
                                                         '0' => {
                                                                  'name' => 'this',
                                                                  'offset' => '0',
                                                                  'type' => '24428083'
                                                                },
                                                         '1' => {
                                                                  'name' => 'out',
                                                                  'offset' => '4',
                                                                  'type' => '24349212'
                                                                }
                                                       },
                                            'Return' => '1',
                                            'ShortName' => 'save_to_xml',
                                            'Source' => 'Benchmark.cpp',
                                            'SourceLine' => '113'
                                          },
                            '24508862' => {
                                            'Artificial' => 1,
                                            'Class' => '24347447',
                                            'Destructor' => 1,
                                            'Header' => 'Benchmark.h',
                                            'InLine' => 1,
                                            'Line' => '59',
                                            'MnglName' => '_ZN5unity6scopes7testing9Benchmark6Result6TimingD2Ev',
                                            'Param' => {
                                                         '0' => {
                                                                  'name' => 'this',
                                                                  'offset' => '0',
                                                                  'type' => '24508857'
                                                                }
                                                       },
                                            'ShortName' => 'Timing',
                                            'Virt' => 1
                                          },
                            '24508863' => {
                                            'Artificial' => 1,
                                            'Class' => '24347447',
                                            'Destructor' => 1,
                                            'Header' => 'Benchmark.h',
                                            'InLine' => 1,
                                            'Line' => '59',
                                            'MnglName' => '_ZN5unity6scopes7testing9Benchmark6Result6TimingD1Ev',
                                            'Param' => {
                                                         '0' => {
                                                                  'name' => 'this',
                                                                  'offset' => '0',
                                                                  'type' => '24508857'
                                                                }
                                                       },
                                            'ShortName' => 'Timing',
                                            'Virt' => 1
                                          },
                            '24526830' => {
                                            'Artificial' => 1,
                                            'Class' => '24347447',
                                            'Destructor' => 1,
                                            'Header' => 'Benchmark.h',
                                            'InLine' => 1,
                                            'Line' => '59',
                                            'MnglName' => '_ZN5unity6scopes7testing9Benchmark6Result6TimingD0Ev',
                                            'Param' => {
                                                         '0' => {
                                                                  'name' => 'this',
                                                                  'offset' => '0',
                                                                  'type' => '24508857'
                                                                }
                                                       },
                                            'ShortName' => 'Timing',
                                            'Virt' => 1
                                          },
                            '24526831' => {
                                            'Artificial' => 1,
                                            'Class' => '24347447',
                                            'Destructor' => 1,
                                            'Header' => 'Benchmark.h',
                                            'InLine' => 1,
                                            'Line' => '59',
                                            'MnglName' => '_ZN5unity6scopes7testing9Benchmark6Result6TimingD1Ev',
                                            'Param' => {
                                                         '0' => {
                                                                  'name' => 'this',
                                                                  'offset' => '0',
                                                                  'type' => '24508857'
                                                                }
                                                       },
                                            'ShortName' => 'Timing',
                                            'Virt' => 1
                                          },
                            '24530733' => {
                                            'Artificial' => 1,
                                            'Class' => '24347212',
                                            'Destructor' => 1,
                                            'Header' => 'Statistics.h',
                                            'InLine' => 1,
                                            'Line' => '171',
                                            'MnglName' => '_ZN5unity6scopes7testing13StudentsTTest6ResultD2Ev',
                                            'Param' => {
                                                         '0' => {
                                                                  'name' => 'this',
                                                                  'offset' => '0',
                                                                  'type' => '24530728'
                                                                }
                                                       },
                                            'ShortName' => 'Result'
                                          },
                            '24530734' => {
                                            'Artificial' => 1,
                                            'Class' => '24347212',
                                            'Destructor' => 1,
                                            'Header' => 'Statistics.h',
                                            'InLine' => 1,
                                            'Line' => '171',
                                            'MnglName' => '_ZN5unity6scopes7testing13StudentsTTest6ResultD0Ev',
                                            'Param' => {
                                                         '0' => {
                                                                  'name' => 'this',
                                                                  'offset' => '0',
                                                                  'type' => '24530728'
                                                                }
                                                       },
                                            'ShortName' => 'Result'
                                          },
                            '24791103' => {
                                            'Class' => '24347412',
                                            'Header' => 'Benchmark.h',
                                            'Line' => '307',
                                            'MnglName' => '_ZN5unity6scopes7testing9Benchmark9for_queryERKSt10shared_ptrINS0_9ScopeBaseEENS2_18QueryConfigurationE',
                                            'Param' => {
                                                         '0' => {
                                                                  'name' => 'this',
                                                                  'type' => '24992547'
                                                                },
                                                         '1' => {
                                                                  'name' => 'p1',
                                                                  'type' => '24987122'
                                                                },
                                                         '2' => {
                                                                  'name' => 'p2',
                                                                  'type' => '24790640'
                                                                }
                                                       },
                                            'PureVirt' => 1,
                                            'Return' => '24347421',
                                            'ShortName' => 'for_query',
                                            'VirtPos' => '2'
                                          },
                            '24791153' => {
                                            'Class' => '24347412',
                                            'Header' => 'Benchmark.h',
                                            'Line' => '318',
                                            'MnglName' => '_ZN5unity6scopes7testing9Benchmark11for_previewERKSt10shared_ptrINS0_9ScopeBaseEENS2_20PreviewConfigurationE',
                                            'Param' => {
                                                         '0' => {
                                                                  'name' => 'this',
                                                                  'type' => '24992547'
                                                                },
                                                         '1' => {
                                                                  'name' => 'p1',
                                                                  'type' => '24987122'
                                                                },
                                                         '2' => {
                                                                  'name' => 'p2',
                                                                  'type' => '24790708'
                                                                }
                                                       },
                                            'PureVirt' => 1,
                                            'Return' => '24347421',
                                            'ShortName' => 'for_preview',
                                            'VirtPos' => '3'
                                          },
                            '24791203' => {
                                            'Class' => '24347412',
                                            'Header' => 'Benchmark.h',
                                            'Line' => '329',
                                            'MnglName' => '_ZN5unity6scopes7testing9Benchmark14for_activationERKSt10shared_ptrINS0_9ScopeBaseEENS2_23ActivationConfigurationE',
                                            'Param' => {
                                                         '0' => {
                                                                  'name' => 'this',
                                                                  'type' => '24992547'
                                                                },
                                                         '1' => {
                                                                  'name' => 'p1',
                                                                  'type' => '24987122'
                                                                },
                                                         '2' => {
                                                                  'name' => 'p2',
                                                                  'type' => '24790776'
                                                                }
                                                       },
                                            'PureVirt' => 1,
                                            'Return' => '24347421',
                                            'ShortName' => 'for_activation',
                                            'VirtPos' => '4'
                                          },
                            '24791253' => {
                                            'Class' => '24347412',
                                            'Header' => 'Benchmark.h',
                                            'Line' => '340',
                                            'MnglName' => '_ZN5unity6scopes7testing9Benchmark10for_actionERKSt10shared_ptrINS0_9ScopeBaseEENS2_19ActionConfigurationE',
                                            'Param' => {
                                                         '0' => {
                                                                  'name' => 'this',
                                                                  'type' => '24992547'
                                                                },
                                                         '1' => {
                                                                  'name' => 'p1',
                                                                  'type' => '24987122'
                                                                },
                                                         '2' => {
                                                                  'name' => 'p2',
                                                                  'type' => '24790846'
                                                                }
                                                       },
                                            'PureVirt' => 1,
                                            'Return' => '24347421',
                                            'ShortName' => 'for_action',
                                            'VirtPos' => '5'
                                          },
                            '24791377' => {
                                            'Class' => '24791328',
                                            'Header' => 'InProcessBenchmark.h',
                                            'MnglName' => '_ZN5unity6scopes7testing18InProcessBenchmark9for_queryERKSt10shared_ptrINS0_9ScopeBaseEENS1_9Benchmark18QueryConfigurationE',
                                            'Param' => {
                                                         '0' => {
                                                                  'name' => 'this',
                                                                  'offset' => '4',
                                                                  'type' => '25086193'
                                                                },
                                                         '1' => {
                                                                  'name' => 'scope',
                                                                  'offset' => '8',
                                                                  'type' => '24987122'
                                                                },
                                                         '2' => {
                                                                  'name' => 'config',
                                                                  'offset' => '12',
                                                                  'type' => '24790640'
                                                                }
                                                       },
                                            'Return' => '24347421',
                                            'ShortName' => 'for_query',
                                            'Source' => 'InProcessBenchmark.cpp',
                                            'SourceLine' => '278',
                                            'Virt' => 1,
                                            'VirtPos' => '2'
                                          },
                            '24791427' => {
                                            'Class' => '24791328',
                                            'Header' => 'InProcessBenchmark.h',
                                            'MnglName' => '_ZN5unity6scopes7testing18InProcessBenchmark11for_previewERKSt10shared_ptrINS0_9ScopeBaseEENS1_9Benchmark20PreviewConfigurationE',
                                            'Param' => {
                                                         '0' => {
                                                                  'name' => 'this',
                                                                  'offset' => '4',
                                                                  'type' => '25086193'
                                                                },
                                                         '1' => {
                                                                  'name' => 'scope',
                                                                  'offset' => '8',
                                                                  'type' => '24987122'
                                                                },
                                                         '2' => {
                                                                  'name' => 'config',
                                                                  'offset' => '12',
                                                                  'type' => '24790708'
                                                                }
                                                       },
                                            'Return' => '24347421',
                                            'ShortName' => 'for_preview',
                                            'Source' => 'InProcessBenchmark.cpp',
                                            'SourceLine' => '320',
                                            'Virt' => 1,
                                            'VirtPos' => '3'
                                          },
                            '24791477' => {
                                            'Class' => '24791328',
                                            'Header' => 'InProcessBenchmark.h',
                                            'MnglName' => '_ZN5unity6scopes7testing18InProcessBenchmark14for_activationERKSt10shared_ptrINS0_9ScopeBaseEENS1_9Benchmark23ActivationConfigurationE',
                                            'Param' => {
                                                         '0' => {
                                                                  'name' => 'this',
                                                                  'offset' => '4',
                                                                  'type' => '25086193'
                                                                },
                                                         '1' => {
                                                                  'name' => 'scope',
                                                                  'offset' => '8',
                                                                  'type' => '24987122'
                                                                },
                                                         '2' => {
                                                                  'name' => 'config',
                                                                  'offset' => '12',
                                                                  'type' => '24790776'
                                                                }
                                                       },
                                            'Return' => '24347421',
                                            'ShortName' => 'for_activation',
                                            'Source' => 'InProcessBenchmark.cpp',
                                            'SourceLine' => '362',
                                            'Virt' => 1,
                                            'VirtPos' => '4'
                                          },
                            '24791527' => {
                                            'Class' => '24791328',
                                            'Header' => 'InProcessBenchmark.h',
                                            'MnglName' => '_ZN5unity6scopes7testing18InProcessBenchmark10for_actionERKSt10shared_ptrINS0_9ScopeBaseEENS1_9Benchmark19ActionConfigurationE',
                                            'Param' => {
                                                         '0' => {
                                                                  'name' => 'this',
                                                                  'offset' => '4',
                                                                  'type' => '25086193'
                                                                },
                                                         '1' => {
                                                                  'name' => 'scope',
                                                                  'offset' => '8',
                                                                  'type' => '24987122'
                                                                },
                                                         '2' => {
                                                                  'name' => 'config',
                                                                  'offset' => '12',
                                                                  'type' => '24790846'
                                                                }
                                                       },
                                            'Return' => '24347421',
                                            'ShortName' => 'for_action',
                                            'Source' => 'InProcessBenchmark.cpp',
                                            'SourceLine' => '392',
                                            'Virt' => 1,
                                            'VirtPos' => '5'
                                          },
                            '25089307' => {
                                            'Class' => '24791328',
                                            'Destructor' => 1,
                                            'Header' => 'InProcessBenchmark.h',
                                            'Line' => '54',
                                            'MnglName' => '_ZN5unity6scopes7testing18InProcessBenchmarkD2Ev',
                                            'Param' => {
                                                         '0' => {
                                                                  'name' => 'this',
                                                                  'offset' => '0',
                                                                  'type' => '25086193'
                                                                }
                                                       },
                                            'ShortName' => 'InProcessBenchmark',
                                            'Virt' => 1
                                          },
                            '25089308' => {
                                            'Class' => '24791328',
                                            'Destructor' => 1,
                                            'Header' => 'InProcessBenchmark.h',
                                            'Line' => '54',
                                            'MnglName' => '_ZN5unity6scopes7testing18InProcessBenchmarkD1Ev',
                                            'Param' => {
                                                         '0' => {
                                                                  'name' => 'this',
                                                                  'offset' => '0',
                                                                  'type' => '25086193'
                                                                }
                                                       },
                                            'ShortName' => 'InProcessBenchmark',
                                            'Virt' => 1
                                          },
                            '25089731' => {
                                            'Class' => '24791328',
                                            'Destructor' => 1,
                                            'Header' => 'InProcessBenchmark.h',
                                            'Line' => '54',
                                            'MnglName' => '_ZN5unity6scopes7testing18InProcessBenchmarkD0Ev',
                                            'Param' => {
                                                         '0' => {
                                                                  'name' => 'this',
                                                                  'offset' => '0',
                                                                  'type' => '25086193'
                                                                }
                                                       },
                                            'ShortName' => 'InProcessBenchmark',
                                            'Virt' => 1
                                          },
                            '25089732' => {
                                            'Class' => '24791328',
                                            'Destructor' => 1,
                                            'Header' => 'InProcessBenchmark.h',
                                            'Line' => '54',
                                            'MnglName' => '_ZN5unity6scopes7testing18InProcessBenchmarkD1Ev',
                                            'Param' => {
                                                         '0' => {
                                                                  'name' => 'this',
                                                                  'offset' => '0',
                                                                  'type' => '25086193'
                                                                }
                                                       },
                                            'ShortName' => 'InProcessBenchmark',
                                            'Virt' => 1
                                          },
                            '25234195' => {
                                            'Class' => '25234146',
                                            'Header' => 'OutOfProcessBenchmark.h',
                                            'MnglName' => '_ZN5unity6scopes7testing21OutOfProcessBenchmark9for_queryERKSt10shared_ptrINS0_9ScopeBaseEENS1_9Benchmark18QueryConfigurationE',
                                            'Param' => {
                                                         '0' => {
                                                                  'name' => 'this',
                                                                  'offset' => '4',
                                                                  'type' => '25247135'
                                                                },
                                                         '1' => {
                                                                  'name' => 'scope',
                                                                  'offset' => '8',
                                                                  'type' => '24987122'
                                                                },
                                                         '2' => {
                                                                  'name' => 'config',
                                                                  'offset' => '12',
                                                                  'type' => '24790640'
                                                                }
                                                       },
                                            'Return' => '24347421',
                                            'ShortName' => 'for_query',
                                            'Source' => 'OutOfProcessBenchmark.cpp',
                                            'SourceLine' => '28',
                                            'Virt' => 1,
                                            'VirtPos' => '2'
                                          },
                            '25234243' => {
                                            'Class' => '25234146',
                                            'Header' => 'OutOfProcessBenchmark.h',
                                            'MnglName' => '_ZN5unity6scopes7testing21OutOfProcessBenchmark11for_previewERKSt10shared_ptrINS0_9ScopeBaseEENS1_9Benchmark20PreviewConfigurationE',
                                            'Param' => {
                                                         '0' => {
                                                                  'name' => 'this',
                                                                  'offset' => '4',
                                                                  'type' => '25247135'
                                                                },
                                                         '1' => {
                                                                  'name' => 'scope',
                                                                  'offset' => '8',
                                                                  'type' => '24987122'
                                                                },
                                                         '2' => {
                                                                  'name' => 'config',
                                                                  'offset' => '12',
                                                                  'type' => '24790708'
                                                                }
                                                       },
                                            'Return' => '24347421',
                                            'ShortName' => 'for_preview',
                                            'Source' => 'OutOfProcessBenchmark.cpp',
                                            'SourceLine' => '63',
                                            'Virt' => 1,
                                            'VirtPos' => '3'
                                          },
                            '25234291' => {
                                            'Class' => '25234146',
                                            'Header' => 'OutOfProcessBenchmark.h',
                                            'MnglName' => '_ZN5unity6scopes7testing21OutOfProcessBenchmark14for_activationERKSt10shared_ptrINS0_9ScopeBaseEENS1_9Benchmark23ActivationConfigurationE',
                                            'Param' => {
                                                         '0' => {
                                                                  'name' => 'this',
                                                                  'offset' => '4',
                                                                  'type' => '25247135'
                                                                },
                                                         '1' => {
                                                                  'name' => 'scope',
                                                                  'offset' => '8',
                                                                  'type' => '24987122'
                                                                },
                                                         '2' => {
                                                                  'name' => 'config',
                                                                  'offset' => '12',
                                                                  'type' => '24790776'
                                                                }
                                                       },
                                            'Return' => '24347421',
                                            'ShortName' => 'for_activation',
                                            'Source' => 'OutOfProcessBenchmark.cpp',
                                            'SourceLine' => '98',
                                            'Virt' => 1,
                                            'VirtPos' => '4'
                                          },
                            '25234339' => {
                                            'Class' => '25234146',
                                            'Header' => 'OutOfProcessBenchmark.h',
                                            'MnglName' => '_ZN5unity6scopes7testing21OutOfProcessBenchmark10for_actionERKSt10shared_ptrINS0_9ScopeBaseEENS1_9Benchmark19ActionConfigurationE',
                                            'Param' => {
                                                         '0' => {
                                                                  'name' => 'this',
                                                                  'offset' => '4',
                                                                  'type' => '25247135'
                                                                },
                                                         '1' => {
                                                                  'name' => 'scope',
                                                                  'offset' => '8',
                                                                  'type' => '24987122'
                                                                },
                                                         '2' => {
                                                                  'name' => 'config',
                                                                  'offset' => '12',
                                                                  'type' => '24790846'
                                                                }
                                                       },
                                            'Return' => '24347421',
                                            'ShortName' => 'for_action',
                                            'Source' => 'OutOfProcessBenchmark.cpp',
                                            'SourceLine' => '133',
                                            'Virt' => 1,
                                            'VirtPos' => '5'
                                          },
                            '25247681' => {
                                            'Class' => '25234146',
                                            'Destructor' => 1,
                                            'Header' => 'OutOfProcessBenchmark.h',
                                            'Line' => '60',
                                            'MnglName' => '_ZN5unity6scopes7testing21OutOfProcessBenchmarkD2Ev',
                                            'Param' => {
                                                         '0' => {
                                                                  'name' => 'this',
                                                                  'offset' => '0',
                                                                  'type' => '25247135'
                                                                }
                                                       },
                                            'ShortName' => 'OutOfProcessBenchmark',
                                            'Virt' => 1
                                          },
                            '25247682' => {
                                            'Class' => '25234146',
                                            'Destructor' => 1,
                                            'Header' => 'OutOfProcessBenchmark.h',
                                            'Line' => '60',
                                            'MnglName' => '_ZN5unity6scopes7testing21OutOfProcessBenchmarkD1Ev',
                                            'Param' => {
                                                         '0' => {
                                                                  'name' => 'this',
                                                                  'offset' => '0',
                                                                  'type' => '25247135'
                                                                }
                                                       },
                                            'ShortName' => 'OutOfProcessBenchmark',
                                            'Virt' => 1
                                          },
                            '25247719' => {
                                            'Class' => '25234146',
                                            'Destructor' => 1,
                                            'Header' => 'OutOfProcessBenchmark.h',
                                            'Line' => '60',
                                            'MnglName' => '_ZN5unity6scopes7testing21OutOfProcessBenchmarkD0Ev',
                                            'Param' => {
                                                         '0' => {
                                                                  'name' => 'this',
                                                                  'offset' => '0',
                                                                  'type' => '25247135'
                                                                }
                                                       },
                                            'ShortName' => 'OutOfProcessBenchmark',
                                            'Virt' => 1
                                          },
                            '25247720' => {
                                            'Class' => '25234146',
                                            'Destructor' => 1,
                                            'Header' => 'OutOfProcessBenchmark.h',
                                            'Line' => '60',
                                            'MnglName' => '_ZN5unity6scopes7testing21OutOfProcessBenchmarkD1Ev',
                                            'Param' => {
                                                         '0' => {
                                                                  'name' => 'this',
                                                                  'offset' => '0',
                                                                  'type' => '25247135'
                                                                }
                                                       },
                                            'ShortName' => 'OutOfProcessBenchmark',
                                            'Virt' => 1
                                          },
                            '25312289' => {
                                            'Class' => '25293586',
                                            'Destructor' => 1,
                                            'Header' => 'Result.h',
                                            'Line' => '37',
                                            'MnglName' => '_ZN5unity6scopes7testing6ResultD2Ev',
                                            'Param' => {
                                                         '0' => {
                                                                  'name' => 'this',
                                                                  'offset' => '0',
                                                                  'type' => '25310935'
                                                                }
                                                       },
                                            'ShortName' => 'Result',
                                            'Virt' => 1
                                          },
                            '25312290' => {
                                            'Class' => '25293586',
                                            'Destructor' => 1,
                                            'Header' => 'Result.h',
                                            'Line' => '37',
                                            'MnglName' => '_ZN5unity6scopes7testing6ResultD1Ev',
                                            'Param' => {
                                                         '0' => {
                                                                  'name' => 'this',
                                                                  'offset' => '0',
                                                                  'type' => '25310935'
                                                                }
                                                       },
                                            'ShortName' => 'Result',
                                            'Virt' => 1
                                          },
                            '25312333' => {
                                            'Class' => '25293586',
                                            'Destructor' => 1,
                                            'Header' => 'Result.h',
                                            'Line' => '37',
                                            'MnglName' => '_ZN5unity6scopes7testing6ResultD0Ev',
                                            'Param' => {
                                                         '0' => {
                                                                  'name' => 'this',
                                                                  'offset' => '0',
                                                                  'type' => '25310935'
                                                                }
                                                       },
                                            'ShortName' => 'Result',
                                            'Virt' => 1
                                          },
                            '25312334' => {
                                            'Class' => '25293586',
                                            'Destructor' => 1,
                                            'Header' => 'Result.h',
                                            'Line' => '37',
                                            'MnglName' => '_ZN5unity6scopes7testing6ResultD1Ev',
                                            'Param' => {
                                                         '0' => {
                                                                  'name' => 'this',
                                                                  'offset' => '0',
                                                                  'type' => '25310935'
                                                                }
                                                       },
                                            'ShortName' => 'Result',
                                            'Virt' => 1
                                          },
                            '25313124' => {
                                            'Class' => '25293586',
                                            'Constructor' => 1,
                                            'Header' => 'Result.h',
                                            'MnglName' => '_ZN5unity6scopes7testing6ResultC2Ev',
                                            'Param' => {
                                                         '0' => {
                                                                  'name' => 'this',
                                                                  'offset' => '0',
                                                                  'type' => '25310935'
                                                                }
                                                       },
                                            'ShortName' => 'Result',
                                            'Source' => 'Result.cpp',
                                            'SourceLine' => '25'
                                          },
                            '25313125' => {
                                            'Class' => '25293586',
                                            'Constructor' => 1,
                                            'Header' => 'Result.h',
                                            'MnglName' => '_ZN5unity6scopes7testing6ResultC1Ev',
                                            'Param' => {
                                                         '0' => {
                                                                  'name' => 'this',
                                                                  'offset' => '0',
                                                                  'type' => '25310935'
                                                                }
                                                       },
                                            'ShortName' => 'Result',
                                            'Source' => 'Result.cpp',
                                            'SourceLine' => '25'
                                          },
                            '25774649' => {
                                            'Class' => '25774267',
                                            'Header' => 'ScopeMetadataBuilder.h',
                                            'Line' => '83',
                                            'MnglName' => '_ZN5unity6scopes7testing20ScopeMetadataBuilder8scope_idERKNSt7__cxx1112basic_stringIcSt11char_traitsIcESaIcEEE',
                                            'Param' => {
                                                         '0' => {
                                                                  'name' => 'this',
                                                                  'offset' => '0',
                                                                  'type' => '25814937'
                                                                },
                                                         '1' => {
                                                                  'name' => 'value',
                                                                  'offset' => '4',
                                                                  'type' => '42113'
                                                                }
                                                       },
                                            'Return' => '25778324',
                                            'ShortName' => 'scope_id',
                                            'Source' => 'ScopeMetadataBuilder.cpp',
                                            'SourceLine' => '63'
                                          },
                            '25774684' => {
                                            'Class' => '25774267',
                                            'Header' => 'ScopeMetadataBuilder.h',
                                            'Line' => '84',
                                            'MnglName' => '_ZN5unity6scopes7testing20ScopeMetadataBuilder5proxyERKSt10shared_ptrINS0_5ScopeEE',
                                            'Param' => {
                                                         '0' => {
                                                                  'name' => 'this',
                                                                  'offset' => '0',
                                                                  'type' => '25814937'
                                                                },
                                                         '1' => {
                                                                  'name' => 'value',
                                                                  'offset' => '4',
                                                                  'type' => '2418470'
                                                                }
                                                       },
                                            'Return' => '25778324',
                                            'ShortName' => 'proxy',
                                            'Source' => 'ScopeMetadataBuilder.cpp',
                                            'SourceLine' => '69'
                                          },
                            '25774719' => {
                                            'Class' => '25774267',
                                            'Header' => 'ScopeMetadataBuilder.h',
                                            'Line' => '85',
                                            'MnglName' => '_ZN5unity6scopes7testing20ScopeMetadataBuilder12display_nameERKNSt7__cxx1112basic_stringIcSt11char_traitsIcESaIcEEE',
                                            'Param' => {
                                                         '0' => {
                                                                  'name' => 'this',
                                                                  'offset' => '0',
                                                                  'type' => '25814937'
                                                                },
                                                         '1' => {
                                                                  'name' => 'value',
                                                                  'offset' => '4',
                                                                  'type' => '42113'
                                                                }
                                                       },
                                            'Return' => '25778324',
                                            'ShortName' => 'display_name',
                                            'Source' => 'ScopeMetadataBuilder.cpp',
                                            'SourceLine' => '75'
                                          },
                            '25774754' => {
                                            'Class' => '25774267',
                                            'Header' => 'ScopeMetadataBuilder.h',
                                            'Line' => '86',
                                            'MnglName' => '_ZN5unity6scopes7testing20ScopeMetadataBuilder11descriptionERKNSt7__cxx1112basic_stringIcSt11char_traitsIcESaIcEEE',
                                            'Param' => {
                                                         '0' => {
                                                                  'name' => 'this',
                                                                  'offset' => '0',
                                                                  'type' => '25814937'
                                                                },
                                                         '1' => {
                                                                  'name' => 'value',
                                                                  'offset' => '4',
                                                                  'type' => '42113'
                                                                }
                                                       },
                                            'Return' => '25778324',
                                            'ShortName' => 'description',
                                            'Source' => 'ScopeMetadataBuilder.cpp',
                                            'SourceLine' => '81'
                                          },
                            '25774789' => {
                                            'Class' => '25774267',
                                            'Header' => 'ScopeMetadataBuilder.h',
                                            'Line' => '87',
                                            'MnglName' => '_ZN5unity6scopes7testing20ScopeMetadataBuilder6authorERKNSt7__cxx1112basic_stringIcSt11char_traitsIcESaIcEEE',
                                            'Param' => {
                                                         '0' => {
                                                                  'name' => 'this',
                                                                  'offset' => '0',
                                                                  'type' => '25814937'
                                                                },
                                                         '1' => {
                                                                  'name' => 'value',
                                                                  'offset' => '4',
                                                                  'type' => '42113'
                                                                }
                                                       },
                                            'Return' => '25778324',
                                            'ShortName' => 'author',
                                            'Source' => 'ScopeMetadataBuilder.cpp'
                                          },
                            '25774824' => {
                                            'Class' => '25774267',
                                            'Header' => 'ScopeMetadataBuilder.h',
                                            'Line' => '88',
                                            'MnglName' => '_ZN5unity6scopes7testing20ScopeMetadataBuilder3artERKNS2_8OptionalINSt7__cxx1112basic_stringIcSt11char_traitsIcESaIcEEEEE',
                                            'Param' => {
                                                         '0' => {
                                                                  'name' => 'this',
                                                                  'offset' => '0',
                                                                  'type' => '25814937'
                                                                },
                                                         '1' => {
                                                                  'name' => 'value',
                                                                  'offset' => '4',
                                                                  'type' => '25778338'
                                                                }
                                                       },
                                            'Return' => '25778324',
                                            'ShortName' => 'art',
                                            'Source' => 'ScopeMetadataBuilder.cpp',
                                            'SourceLine' => '93'
                                          },
                            '25775114' => {
                                            'Class' => '25774267',
                                            'Header' => 'ScopeMetadataBuilder.h',
                                            'Line' => '89',
                                            'MnglName' => '_ZN5unity6scopes7testing20ScopeMetadataBuilder4iconERKNS2_8OptionalINSt7__cxx1112basic_stringIcSt11char_traitsIcESaIcEEEEE',
                                            'Param' => {
                                                         '0' => {
                                                                  'name' => 'this',
                                                                  'offset' => '0',
                                                                  'type' => '25814937'
                                                                },
                                                         '1' => {
                                                                  'name' => 'value',
                                                                  'offset' => '4',
                                                                  'type' => '25778338'
                                                                }
                                                       },
                                            'Return' => '25778324',
                                            'ShortName' => 'icon',
                                            'Source' => 'ScopeMetadataBuilder.cpp',
                                            'SourceLine' => '99'
                                          },
                            '25775149' => {
                                            'Class' => '25774267',
                                            'Header' => 'ScopeMetadataBuilder.h',
                                            'Line' => '90',
                                            'MnglName' => '_ZN5unity6scopes7testing20ScopeMetadataBuilder11search_hintERKNS2_8OptionalINSt7__cxx1112basic_stringIcSt11char_traitsIcESaIcEEEEE',
                                            'Param' => {
                                                         '0' => {
                                                                  'name' => 'this',
                                                                  'offset' => '0',
                                                                  'type' => '25814937'
                                                                },
                                                         '1' => {
                                                                  'name' => 'value',
                                                                  'offset' => '4',
                                                                  'type' => '25778338'
                                                                }
                                                       },
                                            'Return' => '25778324',
                                            'ShortName' => 'search_hint',
                                            'Source' => 'ScopeMetadataBuilder.cpp',
                                            'SourceLine' => '105'
                                          },
                            '25775184' => {
                                            'Class' => '25774267',
                                            'Header' => 'ScopeMetadataBuilder.h',
                                            'Line' => '91',
                                            'MnglName' => '_ZN5unity6scopes7testing20ScopeMetadataBuilder7hot_keyERKNS2_8OptionalINSt7__cxx1112basic_stringIcSt11char_traitsIcESaIcEEEEE',
                                            'Param' => {
                                                         '0' => {
                                                                  'name' => 'this',
                                                                  'offset' => '0',
                                                                  'type' => '25814937'
                                                                },
                                                         '1' => {
                                                                  'name' => 'value',
                                                                  'offset' => '4',
                                                                  'type' => '25778338'
                                                                }
                                                       },
                                            'Return' => '25778324',
                                            'ShortName' => 'hot_key',
                                            'Source' => 'ScopeMetadataBuilder.cpp',
                                            'SourceLine' => '111'
                                          },
                            '25775219' => {
                                            'Class' => '25774267',
                                            'Header' => 'ScopeMetadataBuilder.h',
                                            'Line' => '92',
                                            'MnglName' => '_ZN5unity6scopes7testing20ScopeMetadataBuilder9invisibleERKNS2_8OptionalIbEE',
                                            'Param' => {
                                                         '0' => {
                                                                  'name' => 'this',
                                                                  'offset' => '0',
                                                                  'type' => '25814937'
                                                                },
                                                         '1' => {
                                                                  'name' => 'value',
                                                                  'offset' => '4',
                                                                  'type' => '25778345'
                                                                }
                                                       },
                                            'Return' => '25778324',
                                            'ShortName' => 'invisible',
                                            'Source' => 'ScopeMetadataBuilder.cpp',
                                            'SourceLine' => '117'
                                          },
                            '25775509' => {
                                            'Class' => '25774267',
                                            'Header' => 'ScopeMetadataBuilder.h',
                                            'Line' => '93',
                                            'MnglName' => '_ZN5unity6scopes7testing20ScopeMetadataBuilder21appearance_attributesERKNS2_8OptionalISt3mapINSt7__cxx1112basic_stringIcSt11char_traitsIcESaIcEEENS0_7VariantESt4lessISA_ESaISt4pairIKSA_SB_EEEEE',
                                            'Param' => {
                                                         '0' => {
                                                                  'name' => 'this',
                                                                  'offset' => '0',
                                                                  'type' => '25814937'
                                                                },
                                                         '1' => {
                                                                  'name' => 'value',
                                                                  'offset' => '4',
                                                                  'type' => '25778352'
                                                                }
                                                       },
                                            'Return' => '25778324',
                                            'ShortName' => 'appearance_attributes',
                                            'Source' => 'ScopeMetadataBuilder.cpp',
                                            'SourceLine' => '123'
                                          },
                            '25775799' => {
                                            'Class' => '25774267',
                                            'Header' => 'ScopeMetadataBuilder.h',
                                            'Line' => '94',
                                            'MnglName' => '_ZN5unity6scopes7testing20ScopeMetadataBuilder15scope_directoryERKNS2_8OptionalINSt7__cxx1112basic_stringIcSt11char_traitsIcESaIcEEEEE',
                                            'Param' => {
                                                         '0' => {
                                                                  'name' => 'this',
                                                                  'offset' => '0',
                                                                  'type' => '25814937'
                                                                },
                                                         '1' => {
                                                                  'name' => 'value',
                                                                  'offset' => '4',
                                                                  'type' => '25778338'
                                                                }
                                                       },
                                            'Return' => '25778324',
                                            'ShortName' => 'scope_directory',
                                            'Source' => 'ScopeMetadataBuilder.cpp',
                                            'SourceLine' => '129'
                                          },
                            '25775834' => {
                                            'Class' => '25774267',
                                            'Header' => 'ScopeMetadataBuilder.h',
                                            'Line' => '95',
                                            'MnglName' => '_ZN5unity6scopes7testing20ScopeMetadataBuilder16results_ttl_typeERKNS2_8OptionalINS0_13ScopeMetadata14ResultsTtlTypeEEE',
                                            'Param' => {
                                                         '0' => {
                                                                  'name' => 'this',
                                                                  'offset' => '0',
                                                                  'type' => '25814937'
                                                                },
                                                         '1' => {
                                                                  'name' => 'value',
                                                                  'offset' => '4',
                                                                  'type' => '25778359'
                                                                }
                                                       },
                                            'Return' => '25778324',
                                            'ShortName' => 'results_ttl_type',
                                            'Source' => 'ScopeMetadataBuilder.cpp',
                                            'SourceLine' => '135'
                                          },
                            '25776124' => {
                                            'Class' => '25774267',
                                            'Header' => 'ScopeMetadataBuilder.h',
                                            'Line' => '96',
                                            'MnglName' => '_ZN5unity6scopes7testing20ScopeMetadataBuilder20settings_definitionsERKNS2_8OptionalISt6vectorINS0_7VariantESaIS5_EEEE',
                                            'Param' => {
                                                         '0' => {
                                                                  'name' => 'this',
                                                                  'offset' => '0',
                                                                  'type' => '25814937'
                                                                },
                                                         '1' => {
                                                                  'name' => 'value',
                                                                  'offset' => '4',
                                                                  'type' => '25778366'
                                                                }
                                                       },
                                            'Return' => '25778324',
                                            'ShortName' => 'settings_definitions',
                                            'Source' => 'ScopeMetadataBuilder.cpp',
                                            'SourceLine' => '141'
                                          },
                            '25776414' => {
                                            'Class' => '25774267',
                                            'Header' => 'ScopeMetadataBuilder.h',
                                            'Line' => '97',
                                            'MnglName' => '_ZN5unity6scopes7testing20ScopeMetadataBuilder20location_data_neededERKNS2_8OptionalIbEE',
                                            'Param' => {
                                                         '0' => {
                                                                  'name' => 'this',
                                                                  'offset' => '0',
                                                                  'type' => '25814937'
                                                                },
                                                         '1' => {
                                                                  'name' => 'value',
                                                                  'offset' => '4',
                                                                  'type' => '25778345'
                                                                }
                                                       },
                                            'Return' => '25778324',
                                            'ShortName' => 'location_data_needed',
                                            'Source' => 'ScopeMetadataBuilder.cpp',
                                            'SourceLine' => '147'
                                          },
                            '25776449' => {
                                            'Class' => '25774267',
                                            'Header' => 'ScopeMetadataBuilder.h',
                                            'Line' => '98',
                                            'MnglName' => '_ZN5unity6scopes7testing20ScopeMetadataBuilder15child_scope_idsERKNS2_8OptionalISt6vectorINSt7__cxx1112basic_stringIcSt11char_traitsIcESaIcEEESaISA_EEEE',
                                            'Param' => {
                                                         '0' => {
                                                                  'name' => 'this',
                                                                  'offset' => '0',
                                                                  'type' => '25814937'
                                                                },
                                                         '1' => {
                                                                  'name' => 'value',
                                                                  'offset' => '4',
                                                                  'type' => '25778373'
                                                                }
                                                       },
                                            'Return' => '25778324',
                                            'ShortName' => 'child_scope_ids',
                                            'Source' => 'ScopeMetadataBuilder.cpp',
                                            'SourceLine' => '153'
                                          },
                            '25776739' => {
                                            'Class' => '25774267',
                                            'Header' => 'ScopeMetadataBuilder.h',
                                            'Line' => '99',
                                            'MnglName' => '_ZN5unity6scopes7testing20ScopeMetadataBuilder7versionERKNS2_8OptionalIiEE',
                                            'Param' => {
                                                         '0' => {
                                                                  'name' => 'this',
                                                                  'offset' => '0',
                                                                  'type' => '25814937'
                                                                },
                                                         '1' => {
                                                                  'name' => 'value',
                                                                  'offset' => '4',
                                                                  'type' => '25778380'
                                                                }
                                                       },
                                            'Return' => '25778324',
                                            'ShortName' => 'version',
                                            'Source' => 'ScopeMetadataBuilder.cpp',
                                            'SourceLine' => '159'
                                          },
                            '25777029' => {
                                            'Class' => '25774267',
                                            'Header' => 'ScopeMetadataBuilder.h',
                                            'Line' => '100',
                                            'MnglName' => '_ZN5unity6scopes7testing20ScopeMetadataBuilder8keywordsERKNS2_8OptionalISt3setINSt7__cxx1112basic_stringIcSt11char_traitsIcESaIcEEESt4lessISA_ESaISA_EEEE',
                                            'Param' => {
                                                         '0' => {
                                                                  'name' => 'this',
                                                                  'offset' => '0',
                                                                  'type' => '25814937'
                                                                },
                                                         '1' => {
                                                                  'name' => 'value',
                                                                  'offset' => '4',
                                                                  'type' => '25778387'
                                                                }
                                                       },
                                            'Return' => '25778324',
                                            'ShortName' => 'keywords',
                                            'Source' => 'ScopeMetadataBuilder.cpp',
                                            'SourceLine' => '165'
                                          },
                            '25777319' => {
                                            'Class' => '25774267',
                                            'Header' => 'ScopeMetadataBuilder.h',
                                            'Line' => '101',
                                            'MnglName' => '_ZN5unity6scopes7testing20ScopeMetadataBuilder13is_aggregatorERKNS2_8OptionalIbEE',
                                            'Param' => {
                                                         '0' => {
                                                                  'name' => 'this',
                                                                  'offset' => '0',
                                                                  'type' => '25814937'
                                                                },
                                                         '1' => {
                                                                  'name' => 'value',
                                                                  'offset' => '4',
                                                                  'type' => '25778345'
                                                                }
                                                       },
                                            'Return' => '25778324',
                                            'ShortName' => 'is_aggregator',
                                            'Source' => 'ScopeMetadataBuilder.cpp',
                                            'SourceLine' => '171'
                                          },
                            '25777354' => {
                                            'Class' => '25774267',
                                            'Const' => 1,
                                            'Header' => 'ScopeMetadataBuilder.h',
                                            'Line' => '103',
                                            'MnglName' => '_ZNK5unity6scopes7testing20ScopeMetadataBuilderclEv',
                                            'Param' => {
                                                         '0' => {
                                                                  'name' => 'this',
                                                                  'offset' => '4',
                                                                  'type' => '25860774'
                                                                }
                                                       },
                                            'Return' => '2354715',
                                            'ShortName' => 'operator()',
                                            'Source' => 'ScopeMetadataBuilder.cpp',
                                            'SourceLine' => '177'
                                          },
                            '25814942' => {
                                            'Class' => '25774267',
                                            'Constructor' => 1,
                                            'Header' => 'ScopeMetadataBuilder.h',
                                            'Line' => '80',
                                            'MnglName' => '_ZN5unity6scopes7testing20ScopeMetadataBuilderC2Ev',
                                            'Param' => {
                                                         '0' => {
                                                                  'name' => 'this',
                                                                  'offset' => '0',
                                                                  'type' => '25814937'
                                                                }
                                                       },
                                            'ShortName' => 'ScopeMetadataBuilder',
                                            'Source' => 'ScopeMetadataBuilder.cpp',
                                            'SourceLine' => '55'
                                          },
                            '25814943' => {
                                            'Class' => '25774267',
                                            'Constructor' => 1,
                                            'Header' => 'ScopeMetadataBuilder.h',
                                            'Line' => '80',
                                            'MnglName' => '_ZN5unity6scopes7testing20ScopeMetadataBuilderC1Ev',
                                            'Param' => {
                                                         '0' => {
                                                                  'name' => 'this',
                                                                  'offset' => '0',
                                                                  'type' => '25814937'
                                                                }
                                                       },
                                            'ShortName' => 'ScopeMetadataBuilder',
                                            'Source' => 'ScopeMetadataBuilder.cpp',
                                            'SourceLine' => '55'
                                          },
                            '25844577' => {
                                            'Class' => '25774267',
                                            'Destructor' => 1,
                                            'Header' => 'ScopeMetadataBuilder.h',
                                            'Line' => '81',
                                            'MnglName' => '_ZN5unity6scopes7testing20ScopeMetadataBuilderD2Ev',
                                            'Param' => {
                                                         '0' => {
                                                                  'name' => 'this',
                                                                  'offset' => '0',
                                                                  'type' => '25814937'
                                                                }
                                                       },
                                            'ShortName' => 'ScopeMetadataBuilder',
                                            'Source' => 'ScopeMetadataBuilder.cpp',
                                            'SourceLine' => '59'
                                          },
                            '25924389' => {
                                            'Class' => '25924380',
                                            'Header' => 'TypedScopeFixture.h',
                                            'Line' => '58',
                                            'MnglName' => '_ZN5unity6scopes7testing23TypedScopeFixtureHelper19set_scope_directoryERKSt10shared_ptrINS0_9ScopeBaseEERKNSt7__cxx1112basic_stringIcSt11char_traitsIcESaIcEEE',
                                            'Param' => {
                                                         '0' => {
                                                                  'name' => 'scope',
                                                                  'offset' => '0',
                                                                  'type' => '24987122'
                                                                },
                                                         '1' => {
                                                                  'name' => 'path',
                                                                  'offset' => '4',
                                                                  'type' => '42113'
                                                                }
                                                       },
                                            'Private' => 1,
                                            'Return' => '1',
                                            'ShortName' => 'set_scope_directory',
                                            'Source' => 'TypedScopeFixture.cpp',
                                            'SourceLine' => '27',
                                            'Static' => 1
                                          },
                            '25924415' => {
                                            'Class' => '25924380',
                                            'Header' => 'TypedScopeFixture.h',
                                            'Line' => '59',
                                            'MnglName' => '_ZN5unity6scopes7testing23TypedScopeFixtureHelper19set_cache_directoryERKSt10shared_ptrINS0_9ScopeBaseEERKNSt7__cxx1112basic_stringIcSt11char_traitsIcESaIcEEE',
                                            'Param' => {
                                                         '0' => {
                                                                  'name' => 'scope',
                                                                  'offset' => '0',
                                                                  'type' => '24987122'
                                                                },
                                                         '1' => {
                                                                  'name' => 'path',
                                                                  'offset' => '4',
                                                                  'type' => '42113'
                                                                }
                                                       },
                                            'Private' => 1,
                                            'Return' => '1',
                                            'ShortName' => 'set_cache_directory',
                                            'Source' => 'TypedScopeFixture.cpp',
                                            'SourceLine' => '32',
                                            'Static' => 1
                                          },
                            '25924441' => {
                                            'Class' => '25924380',
                                            'Header' => 'TypedScopeFixture.h',
                                            'Line' => '60',
                                            'MnglName' => '_ZN5unity6scopes7testing23TypedScopeFixtureHelper17set_app_directoryERKSt10shared_ptrINS0_9ScopeBaseEERKNSt7__cxx1112basic_stringIcSt11char_traitsIcESaIcEEE',
                                            'Param' => {
                                                         '0' => {
                                                                  'name' => 'scope',
                                                                  'offset' => '0',
                                                                  'type' => '24987122'
                                                                },
                                                         '1' => {
                                                                  'name' => 'path',
                                                                  'offset' => '4',
                                                                  'type' => '42113'
                                                                }
                                                       },
                                            'Private' => 1,
                                            'Return' => '1',
                                            'ShortName' => 'set_app_directory',
                                            'Source' => 'TypedScopeFixture.cpp',
                                            'SourceLine' => '37',
                                            'Static' => 1
                                          },
                            '25924467' => {
                                            'Class' => '25924380',
                                            'Header' => 'TypedScopeFixture.h',
                                            'Line' => '61',
                                            'MnglName' => '_ZN5unity6scopes7testing23TypedScopeFixtureHelper17set_tmp_directoryERKSt10shared_ptrINS0_9ScopeBaseEERKNSt7__cxx1112basic_stringIcSt11char_traitsIcESaIcEEE',
                                            'Param' => {
                                                         '0' => {
                                                                  'name' => 'scope',
                                                                  'offset' => '0',
                                                                  'type' => '24987122'
                                                                },
                                                         '1' => {
                                                                  'name' => 'path',
                                                                  'offset' => '4',
                                                                  'type' => '42113'
                                                                }
                                                       },
                                            'Private' => 1,
                                            'Return' => '1',
                                            'ShortName' => 'set_tmp_directory',
                                            'Source' => 'TypedScopeFixture.cpp',
                                            'SourceLine' => '42',
                                            'Static' => 1
                                          },
                            '25924493' => {
                                            'Class' => '25924380',
                                            'Header' => 'TypedScopeFixture.h',
                                            'Line' => '62',
                                            'MnglName' => '_ZN5unity6scopes7testing23TypedScopeFixtureHelper12set_registryERKSt10shared_ptrINS0_9ScopeBaseEERKS3_INS0_8RegistryEE',
                                            'Param' => {
                                                         '0' => {
                                                                  'name' => 'scope',
                                                                  'offset' => '0',
                                                                  'type' => '24987122'
                                                                },
                                                         '1' => {
                                                                  'name' => 'r',
                                                                  'offset' => '4',
                                                                  'type' => '20199657'
                                                                }
                                                       },
                                            'Private' => 1,
                                            'Return' => '1',
                                            'ShortName' => 'set_registry',
                                            'Source' => 'TypedScopeFixture.cpp',
                                            'SourceLine' => '47',
                                            'Static' => 1
                                          },
                            '25968407' => {
                                            'Class' => '25968348',
                                            'Header' => 'AbstractScopeBase.h',
                                            'Line' => '44',
                                            'MnglName' => '_ZN5unity6scopes17AbstractScopeBase5startERKNSt7__cxx1112basic_stringIcSt11char_traitsIcESaIcEEE',
                                            'Param' => {
                                                         '0' => {
                                                                  'name' => 'this',
                                                                  'type' => '25970538'
                                                                },
                                                         '1' => {
                                                                  'name' => 'p1',
                                                                  'type' => '42113'
                                                                }
                                                       },
                                            'PureVirt' => 1,
                                            'Return' => '1',
                                            'ShortName' => 'start',
                                            'VirtPos' => '0'
                                          },
                            '25968447' => {
                                            'Class' => '25968348',
                                            'Header' => 'AbstractScopeBase.h',
                                            'Line' => '45',
                                            'MnglName' => '_ZN5unity6scopes17AbstractScopeBase4stopEv',
                                            'Param' => {
                                                         '0' => {
                                                                  'name' => 'this',
                                                                  'type' => '25970538'
                                                                }
                                                       },
                                            'PureVirt' => 1,
                                            'Return' => '1',
                                            'ShortName' => 'stop',
                                            'VirtPos' => '1'
                                          },
                            '25968482' => {
                                            'Class' => '25968348',
                                            'Header' => 'AbstractScopeBase.h',
                                            'Line' => '46',
                                            'MnglName' => '_ZN5unity6scopes17AbstractScopeBase3runEv',
                                            'Param' => {
                                                         '0' => {
                                                                  'name' => 'this',
                                                                  'type' => '25970538'
                                                                }
                                                       },
                                            'PureVirt' => 1,
                                            'Return' => '1',
                                            'ShortName' => 'run',
                                            'VirtPos' => '2'
                                          },
                            '25968517' => {
                                            'Class' => '25968348',
                                            'Header' => 'AbstractScopeBase.h',
                                            'Line' => '47',
                                            'MnglName' => '_ZN5unity6scopes17AbstractScopeBase6searchERKNS0_11CannedQueryERKNS0_14SearchMetadataE',
                                            'Param' => {
                                                         '0' => {
                                                                  'name' => 'this',
                                                                  'type' => '25970538'
                                                                },
                                                         '1' => {
                                                                  'name' => 'p1',
                                                                  'type' => '109882'
                                                                },
                                                         '2' => {
                                                                  'name' => 'p2',
                                                                  'type' => '688733'
                                                                }
                                                       },
                                            'PureVirt' => 1,
                                            'Return' => '636870',
                                            'ShortName' => 'search',
                                            'VirtPos' => '3'
                                          },
                            '25968566' => {
                                            'Class' => '25968348',
                                            'Header' => 'AbstractScopeBase.h',
                                            'Line' => '48',
                                            'MnglName' => '_ZN5unity6scopes17AbstractScopeBase8activateERKNS0_6ResultERKNS0_14ActionMetadataE',
                                            'Param' => {
                                                         '0' => {
                                                                  'name' => 'this',
                                                                  'type' => '25970538'
                                                                },
                                                         '1' => {
                                                                  'name' => 'p1',
                                                                  'type' => '687773'
                                                                },
                                                         '2' => {
                                                                  'name' => 'p2',
                                                                  'type' => '688740'
                                                                }
                                                       },
                                            'PureVirt' => 1,
                                            'Return' => '637088',
                                            'ShortName' => 'activate',
                                            'VirtPos' => '4'
                                          },
                            '25968615' => {
                                            'Class' => '25968348',
                                            'Header' => 'AbstractScopeBase.h',
                                            'Line' => '49',
                                            'MnglName' => '_ZN5unity6scopes17AbstractScopeBase14perform_actionERKNS0_6ResultERKNS0_14ActionMetadataERKNSt7__cxx1112basic_stringIcSt11char_traitsIcESaIcEEESF_',
                                            'Param' => {
                                                         '0' => {
                                                                  'name' => 'this',
                                                                  'type' => '25970538'
                                                                },
                                                         '1' => {
                                                                  'name' => 'p1',
                                                                  'type' => '687773'
                                                                },
                                                         '2' => {
                                                                  'name' => 'p2',
                                                                  'type' => '688740'
                                                                },
                                                         '3' => {
                                                                  'name' => 'p3',
                                                                  'type' => '42113'
                                                                },
                                                         '4' => {
                                                                  'name' => 'p4',
                                                                  'type' => '42113'
                                                                }
                                                       },
                                            'PureVirt' => 1,
                                            'Return' => '637088',
                                            'ShortName' => 'perform_action',
                                            'VirtPos' => '5'
                                          },
                            '25968674' => {
                                            'Class' => '25968348',
                                            'Header' => 'AbstractScopeBase.h',
                                            'Line' => '53',
                                            'MnglName' => '_ZN5unity6scopes17AbstractScopeBase7previewERKNS0_6ResultERKNS0_14ActionMetadataE',
                                            'Param' => {
                                                         '0' => {
                                                                  'name' => 'this',
                                                                  'type' => '25970538'
                                                                },
                                                         '1' => {
                                                                  'name' => 'p1',
                                                                  'type' => '687773'
                                                                },
                                                         '2' => {
                                                                  'name' => 'p2',
                                                                  'type' => '688740'
                                                                }
                                                       },
                                            'PureVirt' => 1,
                                            'Return' => '25969189',
                                            'ShortName' => 'preview',
                                            'VirtPos' => '6'
                                          },
                            '25968723' => {
                                            'Class' => '25968348',
                                            'Const' => 1,
                                            'Header' => 'AbstractScopeBase.h',
                                            'Line' => '54',
                                            'MnglName' => '_ZNK5unity6scopes17AbstractScopeBase15scope_directoryB5cxx11Ev',
                                            'Param' => {
                                                         '0' => {
                                                                  'name' => 'this',
                                                                  'type' => '25970562'
                                                                }
                                                       },
                                            'PureVirt' => 1,
                                            'Return' => '6675',
                                            'ShortName' => 'scope_directory',
                                            'VirtPos' => '7'
                                          },
                            '25968762' => {
                                            'Class' => '25968348',
                                            'Const' => 1,
                                            'Header' => 'AbstractScopeBase.h',
                                            'Line' => '55',
                                            'MnglName' => '_ZNK5unity6scopes17AbstractScopeBase15cache_directoryB5cxx11Ev',
                                            'Param' => {
                                                         '0' => {
                                                                  'name' => 'this',
                                                                  'type' => '25970562'
                                                                }
                                                       },
                                            'PureVirt' => 1,
                                            'Return' => '6675',
                                            'ShortName' => 'cache_directory',
                                            'VirtPos' => '8'
                                          },
                            '25968801' => {
                                            'Class' => '25968348',
                                            'Const' => 1,
                                            'Header' => 'AbstractScopeBase.h',
                                            'Line' => '56',
                                            'MnglName' => '_ZNK5unity6scopes17AbstractScopeBase13tmp_directoryB5cxx11Ev',
                                            'Param' => {
                                                         '0' => {
                                                                  'name' => 'this',
                                                                  'type' => '25970562'
                                                                }
                                                       },
                                            'PureVirt' => 1,
                                            'Return' => '6675',
                                            'ShortName' => 'tmp_directory',
                                            'VirtPos' => '9'
                                          },
                            '25968840' => {
                                            'Class' => '25968348',
                                            'Const' => 1,
                                            'Header' => 'AbstractScopeBase.h',
                                            'Line' => '57',
                                            'MnglName' => '_ZNK5unity6scopes17AbstractScopeBase8registryEv',
                                            'Param' => {
                                                         '0' => {
                                                                  'name' => 'this',
                                                                  'type' => '25970562'
                                                                }
                                                       },
                                            'PureVirt' => 1,
                                            'Return' => '1180129',
                                            'ShortName' => 'registry',
                                            'VirtPos' => '10'
                                          },
                            '25968879' => {
                                            'Class' => '25968348',
                                            'Const' => 1,
                                            'Header' => 'AbstractScopeBase.h',
                                            'Line' => '58',
                                            'MnglName' => '_ZNK5unity6scopes17AbstractScopeBase8settingsB5cxx11Ev',
                                            'Param' => {
                                                         '0' => {
                                                                  'name' => 'this',
                                                                  'type' => '25970562'
                                                                }
                                                       },
                                            'PureVirt' => 1,
                                            'Return' => '105481',
                                            'ShortName' => 'settings',
                                            'VirtPos' => '11'
                                          },
                            '25968955' => {
                                            'Class' => '25968348',
                                            'Const' => 1,
                                            'Header' => 'AbstractScopeBase.h',
                                            'Line' => '62',
                                            'MnglName' => '_ZNK5unity6scopes17AbstractScopeBase17find_child_scopesEv',
                                            'Param' => {
                                                         '0' => {
                                                                  'name' => 'this',
                                                                  'type' => '25970562'
                                                                }
                                                       },
                                            'PureVirt' => 1,
                                            'Return' => '2837190',
                                            'ShortName' => 'find_child_scopes',
                                            'VirtPos' => '14'
                                          },
                            '25968994' => {
                                            'Class' => '25968348',
                                            'Const' => 1,
                                            'Header' => 'AbstractScopeBase.h',
                                            'Line' => '63',
                                            'MnglName' => '_ZNK5unity6scopes17AbstractScopeBase12child_scopesEv',
                                            'Param' => {
                                                         '0' => {
                                                                  'name' => 'this',
                                                                  'type' => '25970562'
                                                                }
                                                       },
                                            'PureVirt' => 1,
                                            'Return' => '2837190',
                                            'ShortName' => 'child_scopes',
                                            'VirtPos' => '15'
                                          },
                            '25969033' => {
                                            'Class' => '25968348',
                                            'Header' => 'AbstractScopeBase.h',
                                            'Line' => '65',
                                            'MnglName' => '_ZN5unity6scopes17AbstractScopeBase22activate_result_actionERKNS0_6ResultERKNS0_14ActionMetadataERKNSt7__cxx1112basic_stringIcSt11char_traitsIcESaIcEEE',
                                            'Param' => {
                                                         '0' => {
                                                                  'name' => 'this',
                                                                  'type' => '25970538'
                                                                },
                                                         '1' => {
                                                                  'name' => 'p1',
                                                                  'type' => '687773'
                                                                },
                                                         '2' => {
                                                                  'name' => 'p2',
                                                                  'type' => '688740'
                                                                },
                                                         '3' => {
                                                                  'name' => 'p3',
                                                                  'type' => '42113'
                                                                }
                                                       },
                                            'PureVirt' => 1,
                                            'Return' => '637088',
                                            'ShortName' => 'activate_result_action',
                                            'VirtPos' => '16'
                                          },
                            '25970635' => {
                                            'Class' => '25968348',
                                            'Constructor' => 1,
                                            'Header' => 'AbstractScopeBase.h',
                                            'Line' => '40',
                                            'MnglName' => '_ZN5unity6scopes17AbstractScopeBaseC2Ev',
                                            'Param' => {
                                                         '0' => {
                                                                  'name' => 'this',
                                                                  'offset' => '0',
                                                                  'type' => '25970630'
                                                                }
                                                       },
                                            'Protected' => 1,
                                            'ShortName' => 'AbstractScopeBase'
                                          },
                            '25970636' => {
                                            'Class' => '25968348',
                                            'Constructor' => 1,
                                            'Header' => 'AbstractScopeBase.h',
                                            'Line' => '40',
                                            'MnglName' => '_ZN5unity6scopes17AbstractScopeBaseC1Ev',
                                            'Param' => {
                                                         '0' => {
                                                                  'name' => 'this',
                                                                  'offset' => '0',
                                                                  'type' => '25970630'
                                                                }
                                                       },
                                            'Protected' => 1,
                                            'ShortName' => 'AbstractScopeBase'
                                          },
                            '25970709' => {
                                            'Class' => '25968348',
                                            'Destructor' => 1,
                                            'Header' => 'AbstractScopeBase.h',
                                            'Line' => '40',
                                            'MnglName' => '_ZN5unity6scopes17AbstractScopeBaseD2Ev',
                                            'Param' => {
                                                         '0' => {
                                                                  'name' => 'this',
                                                                  'offset' => '0',
                                                                  'type' => '25970630'
                                                                }
                                                       },
                                            'ShortName' => 'AbstractScopeBase',
                                            'Virt' => 1
                                          },
                            '25970710' => {
                                            'Class' => '25968348',
                                            'Destructor' => 1,
                                            'Header' => 'AbstractScopeBase.h',
                                            'Line' => '40',
                                            'MnglName' => '_ZN5unity6scopes17AbstractScopeBaseD1Ev',
                                            'Param' => {
                                                         '0' => {
                                                                  'name' => 'this',
                                                                  'offset' => '0',
                                                                  'type' => '25970630'
                                                                }
                                                       },
                                            'ShortName' => 'AbstractScopeBase',
                                            'Virt' => 1
                                          },
                            '25970747' => {
                                            'Class' => '25968348',
                                            'Destructor' => 1,
                                            'Header' => 'AbstractScopeBase.h',
                                            'Line' => '40',
                                            'MnglName' => '_ZN5unity6scopes17AbstractScopeBaseD0Ev',
                                            'Param' => {
                                                         '0' => {
                                                                  'name' => 'this',
                                                                  'offset' => '0',
                                                                  'type' => '25970630'
                                                                }
                                                       },
                                            'ShortName' => 'AbstractScopeBase',
                                            'Virt' => 1
                                          },
                            '25970748' => {
                                            'Class' => '25968348',
                                            'Destructor' => 1,
                                            'Header' => 'AbstractScopeBase.h',
                                            'Line' => '40',
                                            'MnglName' => '_ZN5unity6scopes17AbstractScopeBaseD1Ev',
                                            'Param' => {
                                                         '0' => {
                                                                  'name' => 'this',
                                                                  'offset' => '0',
                                                                  'type' => '25970630'
                                                                }
                                                       },
                                            'ShortName' => 'AbstractScopeBase',
                                            'Virt' => 1
                                          },
                            '26013220' => {
                                            'Header' => 'QueryMetadata.h',
                                            'Line' => '96',
                                            'MnglName' => '_ZN5unity6scopes13QueryMetadataaSEOS1_',
                                            'Param' => {
                                                         '0' => {
                                                                  'name' => 'this',
                                                                  'offset' => '0',
                                                                  'type' => '27488504'
                                                                },
                                                         '1' => {
                                                                  'name' => 'p1',
                                                                  'type' => '27489192'
                                                                }
                                                       },
                                            'Reg' => {
                                                       '1' => 'eax'
                                                     },
                                            'Return' => '27486588',
                                            'ShortName' => 'operator='
                                          },
                            '26013331' => {
                                            'Class' => '637032',
                                            'Header' => 'ActionMetadata.h',
                                            'MnglName' => '_ZN5unity6scopes14ActionMetadata14set_scope_dataERKNS0_7VariantE',
                                            'Param' => {
                                                         '0' => {
                                                                  'name' => 'this',
                                                                  'offset' => '0',
                                                                  'type' => '26019842'
                                                                },
                                                         '1' => {
                                                                  'name' => 'data',
                                                                  'offset' => '4',
                                                                  'type' => '109344'
                                                                }
                                                       },
                                            'Return' => '1',
                                            'ShortName' => 'set_scope_data',
                                            'Source' => 'ActionMetadata.cpp',
                                            'SourceLine' => '64'
                                          },
                            '26013362' => {
                                            'Class' => '637032',
                                            'Const' => 1,
                                            'Header' => 'ActionMetadata.h',
                                            'MnglName' => '_ZNK5unity6scopes14ActionMetadata10scope_dataEv',
                                            'Param' => {
                                                         '0' => {
                                                                  'name' => 'this',
                                                                  'offset' => '4',
                                                                  'type' => '26020957'
                                                                }
                                                       },
                                            'Return' => '104143',
                                            'ShortName' => 'scope_data',
                                            'Source' => 'ActionMetadata.cpp',
                                            'SourceLine' => '69'
                                          },
                            '26013454' => {
                                            'Class' => '637032',
                                            'Header' => 'ActionMetadata.h',
                                            'MnglName' => '_ZN5unity6scopes14ActionMetadataaSERKS1_',
                                            'Param' => {
                                                         '0' => {
                                                                  'name' => 'this',
                                                                  'offset' => '0',
                                                                  'type' => '26019842'
                                                                },
                                                         '1' => {
                                                                  'name' => 'other',
                                                                  'offset' => '4',
                                                                  'type' => '688740'
                                                                }
                                                       },
                                            'Return' => '24988467',
                                            'ShortName' => 'operator=',
                                            'Source' => 'ActionMetadata.cpp',
                                            'SourceLine' => '51'
                                          },
                            '26013489' => {
                                            'Class' => '637032',
                                            'Header' => 'ActionMetadata.h',
                                            'Line' => '41',
                                            'MnglName' => '_ZN5unity6scopes14ActionMetadataaSEOS1_',
                                            'Param' => {
                                                         '0' => {
                                                                  'name' => 'this',
                                                                  'offset' => '0',
                                                                  'type' => '26019842'
                                                                },
                                                         '1' => {
                                                                  'name' => 'p1',
                                                                  'offset' => '4',
                                                                  'type' => '26020711'
                                                                }
                                                       },
                                            'Return' => '24988467',
                                            'ShortName' => 'operator='
                                          },
                            '26013524' => {
                                            'Class' => '637032',
                                            'Header' => 'ActionMetadata.h',
                                            'MnglName' => '_ZN5unity6scopes14ActionMetadata8set_hintERKNSt7__cxx1112basic_stringIcSt11char_traitsIcESaIcEEERKNS0_7VariantE',
                                            'Param' => {
                                                         '0' => {
                                                                  'name' => 'this',
                                                                  'offset' => '0',
                                                                  'type' => '26019842'
                                                                },
                                                         '1' => {
                                                                  'name' => 'key',
                                                                  'offset' => '4',
                                                                  'type' => '42113'
                                                                },
                                                         '2' => {
                                                                  'name' => 'value',
                                                                  'offset' => '8',
                                                                  'type' => '109344'
                                                                }
                                                       },
                                            'Return' => '1',
                                            'ShortName' => 'set_hint',
                                            'Source' => 'ActionMetadata.cpp',
                                            'SourceLine' => '74'
                                          },
                            '26013560' => {
                                            'Class' => '637032',
                                            'Const' => 1,
                                            'Header' => 'ActionMetadata.h',
                                            'MnglName' => '_ZNK5unity6scopes14ActionMetadata5hintsB5cxx11Ev',
                                            'Param' => {
                                                         '0' => {
                                                                  'name' => 'this',
                                                                  'offset' => '4',
                                                                  'type' => '26020957'
                                                                }
                                                       },
                                            'Return' => '105481',
                                            'ShortName' => 'hints',
                                            'Source' => 'ActionMetadata.cpp',
                                            'SourceLine' => '79'
                                          },
                            '26013625' => {
                                            'Class' => '637032',
                                            'Header' => 'ActionMetadata.h',
                                            'MnglName' => '_ZN5unity6scopes14ActionMetadataixERKNSt7__cxx1112basic_stringIcSt11char_traitsIcESaIcEEE',
                                            'Param' => {
                                                         '0' => {
                                                                  'name' => 'this',
                                                                  'offset' => '0',
                                                                  'type' => '26019842'
                                                                },
                                                         '1' => {
                                                                  'name' => 'key',
                                                                  'offset' => '4',
                                                                  'type' => '42113'
                                                                }
                                                       },
                                            'Return' => '109356',
                                            'ShortName' => 'operator[]',
                                            'Source' => 'ActionMetadata.cpp',
                                            'SourceLine' => '84'
                                          },
                            '26019847' => {
                                            'Class' => '637032',
                                            'Destructor' => 1,
                                            'Header' => 'ActionMetadata.h',
                                            'MnglName' => '_ZN5unity6scopes14ActionMetadataD2Ev',
                                            'Param' => {
                                                         '0' => {
                                                                  'name' => 'this',
                                                                  'offset' => '0',
                                                                  'type' => '26019842'
                                                                }
                                                       },
                                            'ShortName' => 'ActionMetadata',
                                            'Source' => 'ActionMetadata.cpp',
                                            'SourceLine' => '47',
                                            'Virt' => 1
                                          },
                            '26019848' => {
                                            'Class' => '637032',
                                            'Destructor' => 1,
                                            'Header' => 'ActionMetadata.h',
                                            'MnglName' => '_ZN5unity6scopes14ActionMetadataD1Ev',
                                            'Param' => {
                                                         '0' => {
                                                                  'name' => 'this',
                                                                  'offset' => '0',
                                                                  'type' => '26019842'
                                                                }
                                                       },
                                            'ShortName' => 'ActionMetadata',
                                            'Source' => 'ActionMetadata.cpp',
                                            'SourceLine' => '47',
                                            'Virt' => 1
                                          },
                            '26019891' => {
                                            'Class' => '637032',
                                            'Destructor' => 1,
                                            'Header' => 'ActionMetadata.h',
                                            'MnglName' => '_ZN5unity6scopes14ActionMetadataD0Ev',
                                            'Param' => {
                                                         '0' => {
                                                                  'name' => 'this',
                                                                  'offset' => '0',
                                                                  'type' => '26019842'
                                                                }
                                                       },
                                            'ShortName' => 'ActionMetadata',
                                            'Source' => 'ActionMetadata.cpp',
                                            'SourceLine' => '47',
                                            'Virt' => 1
                                          },
                            '26019892' => {
                                            'Class' => '637032',
                                            'Destructor' => 1,
                                            'Header' => 'ActionMetadata.h',
                                            'MnglName' => '_ZN5unity6scopes14ActionMetadataD1Ev',
                                            'Param' => {
                                                         '0' => {
                                                                  'name' => 'this',
                                                                  'offset' => '0',
                                                                  'type' => '26019842'
                                                                }
                                                       },
                                            'ShortName' => 'ActionMetadata',
                                            'Source' => 'ActionMetadata.cpp',
                                            'SourceLine' => '47',
                                            'Virt' => 1
                                          },
                            '26020491' => {
                                            'Class' => '637032',
                                            'Constructor' => 1,
                                            'Header' => 'ActionMetadata.h',
                                            'MnglName' => '_ZN5unity6scopes14ActionMetadataC2ERKNSt7__cxx1112basic_stringIcSt11char_traitsIcESaIcEEES9_',
                                            'Param' => {
                                                         '0' => {
                                                                  'name' => 'this',
                                                                  'offset' => '0',
                                                                  'type' => '26019842'
                                                                },
                                                         '1' => {
                                                                  'name' => 'locale',
                                                                  'offset' => '4',
                                                                  'type' => '42113'
                                                                },
                                                         '2' => {
                                                                  'name' => 'form_factor',
                                                                  'offset' => '8',
                                                                  'type' => '42113'
                                                                }
                                                       },
                                            'ShortName' => 'ActionMetadata',
                                            'Source' => 'ActionMetadata.cpp',
                                            'SourceLine' => '29'
                                          },
                            '26020492' => {
                                            'Class' => '637032',
                                            'Constructor' => 1,
                                            'Header' => 'ActionMetadata.h',
                                            'MnglName' => '_ZN5unity6scopes14ActionMetadataC1ERKNSt7__cxx1112basic_stringIcSt11char_traitsIcESaIcEEES9_',
                                            'Param' => {
