$VAR1 = {
          'ABI_DUMPER_VERSION' => '0.99.12',
          'ABI_DUMP_VERSION' => '3.2',
          'Arch' => 'ARM',
          'Compiler' => 'GNU C++11 5.2.1 20151028 -march=armv7-a -mfloat-abi=hard -mfpu=vfpv3-d16 -mthumb -mtls-dialect=gnu -g -O2 -std=c++11 -fstack-protector-strong -fvisibility=default -fno-permissive -fPIC -fstack-protector-strong',
          'Headers' => {
                         'AbstractScopeBase.h' => 1,
                         'ActionMetadata.h' => 1,
                         'ActivationListenerBase.h' => 1,
                         'ActivationQueryBase.h' => 1,
                         'ActivationResponse.h' => 1,
                         'Annotation.h' => 1,
                         'Benchmark.h' => 1,
                         'BufferedResultForwarder.h' => 1,
                         'CannedQuery.h' => 1,
                         'CategorisedResult.h' => 1,
                         'Category.h' => 1,
                         'CategoryRenderer.h' => 1,
                         'ChildScope.h' => 1,
                         'ColumnLayout.h' => 1,
                         'CompletionDetails.h' => 1,
                         'DateTimePickerFilter.h' => 1,
                         'Department.h' => 1,
                         'FilterBase.h' => 1,
                         'FilterOption.h' => 1,
                         'FilterState.h' => 1,
                         'InProcessBenchmark.h' => 1,
                         'Link.h' => 1,
                         'ListenerBase.h' => 1,
                         'Location.h' => 1,
                         'Object.h' => 1,
                         'ObjectProxyFwd.h' => 1,
                         'OnlineAccountClient.h' => 1,
                         'OperationInfo.h' => 1,
                         'OptionSelectorFilter.h' => 1,
                         'OutOfProcessBenchmark.h' => 1,
                         'PreviewListenerBase.h' => 1,
                         'PreviewQueryBase.h' => 1,
                         'PreviewReply.h' => 1,
                         'PreviewReplyProxyFwd.h' => 1,
                         'PreviewWidget.h' => 1,
                         'QueryBase.h' => 1,
                         'QueryCtrl.h' => 1,
                         'QueryCtrlProxyFwd.h' => 1,
                         'QueryMetadata.h' => 1,
                         'RadioButtonsFilter.h' => 1,
                         'RangeInputFilter.h' => 1,
                         'RatingFilter.h' => 1,
                         'Registry.h' => 1,
                         'RegistryProxyFwd.h' => 1,
                         'Reply.h' => 1,
                         'Result.h' => 1,
                         'Runtime.h' => 1,
                         'Scope.h' => 1,
                         'ScopeBase.h' => 1,
                         'ScopeExceptions.h' => 1,
                         'ScopeMetadata.h' => 1,
                         'ScopeMetadataBuilder.h' => 1,
                         'ScopeProxyFwd.h' => 1,
                         'SearchListenerBase.h' => 1,
                         'SearchMetadata.h' => 1,
                         'SearchQueryBase.h' => 1,
                         'SearchReply.h' => 1,
                         'SearchReplyProxyFwd.h' => 1,
                         'Statistics.h' => 1,
                         'SwitchFilter.h' => 1,
                         'TypedScopeFixture.h' => 1,
                         'ValueSliderFilter.h' => 1,
                         'Variant.h' => 1,
                         'VariantBuilder.h' => 1,
                         'Version.h' => 1
                       },
          'Language' => 'C++',
          'LibraryName' => 'libunity-scopes.so.1.0.0',
          'LibraryVersion' => '1.0.0',
          'NameSpaces' => {
                            'Json' => 1,
                            '__cxxabiv1' => 1,
                            '__gnu_cxx' => 1,
                            '__gnu_cxx::__ops' => 1,
                            'boost' => 1,
                            'boost::CV' => 1,
                            'boost::_bi' => 1,
                            'boost::_mfi' => 1,
                            'boost::accumulators' => 1,
                            'boost::accumulators::detail' => 1,
                            'boost::accumulators::extract' => 1,
                            'boost::accumulators::impl' => 1,
                            'boost::accumulators::tag' => 1,
                            'boost::algorithm' => 1,
                            'boost::algorithm::detail' => 1,
                            'boost::archive' => 1,
                            'boost::archive::detail' => 1,
                            'boost::chrono' => 1,
                            'boost::container' => 1,
                            'boost::core' => 1,
                            'boost::date_time' => 1,
                            'boost::detail' => 1,
                            'boost::detail::aligned_storage' => 1,
                            'boost::detail::function' => 1,
                            'boost::detail::optional_detail' => 1,
                            'boost::detail::static_log2_impl' => 1,
                            'boost::detail::variant' => 1,
                            'boost::exception_detail' => 1,
                            'boost::filesystem' => 1,
                            'boost::filesystem::detail' => 1,
                            'boost::fusion' => 1,
                            'boost::fusion::detail' => 1,
                            'boost::fusion::extension' => 1,
                            'boost::fusion::result_of' => 1,
                            'boost::fusion::traits' => 1,
                            'boost::gregorian' => 1,
                            'boost::io' => 1,
                            'boost::io::detail' => 1,
                            'boost::iterator_range_detail' => 1,
                            'boost::iterators' => 1,
                            'boost::iterators::detail' => 1,
                            'boost::log::v2_mt_posix' => 1,
                            'boost::log::v2_mt_posix::attributes' => 1,
                            'boost::log::v2_mt_posix::aux' => 1,
                            'boost::log::v2_mt_posix::expressions' => 1,
                            'boost::log::v2_mt_posix::expressions::aux' => 1,
                            'boost::log::v2_mt_posix::expressions::aux::date_time_support' => 1,
                            'boost::log::v2_mt_posix::expressions::tag' => 1,
                            'boost::log::v2_mt_posix::keywords' => 1,
                            'boost::log::v2_mt_posix::keywords::tag' => 1,
                            'boost::log::v2_mt_posix::result_of' => 1,
                            'boost::log::v2_mt_posix::sinks' => 1,
                            'boost::log::v2_mt_posix::sinks::file' => 1,
                            'boost::log::v2_mt_posix::sinks::file::aux' => 1,
                            'boost::log::v2_mt_posix::sources' => 1,
                            'boost::log::v2_mt_posix::sources::aux' => 1,
                            'boost::log::v2_mt_posix::trivial' => 1,
                            'boost::log::v2_mt_posix::trivial::tag' => 1,
                            'boost::math' => 1,
                            'boost::math::constants' => 1,
                            'boost::math::constants::detail' => 1,
                            'boost::math::detail' => 1,
                            'boost::math::lanczos' => 1,
                            'boost::math::long_double_constants' => 1,
                            'boost::math::policies' => 1,
                            'boost::math::policies::detail' => 1,
                            'boost::math::tools' => 1,
                            'boost::math::tools::detail' => 1,
                            'boost::move_detail' => 1,
                            'boost::mpl' => 1,
                            'boost::mpl::aux' => 1,
                            'boost::noncopyable_' => 1,
                            'boost::numeric' => 1,
                            'boost::numeric::functional' => 1,
                            'boost::numeric::op' => 1,
                            'boost::optional_detail' => 1,
                            'boost::parameter' => 1,
                            'boost::parameter::aux' => 1,
                            'boost::phoenix' => 1,
                            'boost::phoenix::arg_names' => 1,
                            'boost::phoenix::detail' => 1,
                            'boost::phoenix::detail::tag' => 1,
                            'boost::phoenix::expression' => 1,
                            'boost::phoenix::local_names' => 1,
                            'boost::phoenix::result_of' => 1,
                            'boost::posix' => 1,
                            'boost::posix_time' => 1,
                            'boost::proto' => 1,
                            'boost::proto::argsns_' => 1,
                            'boost::proto::context' => 1,
                            'boost::proto::detail' => 1,
                            'boost::proto::detail::anyns' => 1,
                            'boost::proto::domainns_' => 1,
                            'boost::proto::envns_' => 1,
                            'boost::proto::exprns_' => 1,
                            'boost::proto::result_of' => 1,
                            'boost::proto::tagns_::tag' => 1,
                            'boost::pthread' => 1,
                            'boost::range' => 1,
                            'boost::range_adl_barrier' => 1,
                            'boost::range_detail' => 1,
                            'boost::serialization' => 1,
                            'boost::serialization::detail' => 1,
                            'boost::serialization::ext' => 1,
                            'boost::serialization::smart_cast_impl' => 1,
                            'boost::serialization::stl' => 1,
                            'boost::serialization::typeid_system' => 1,
                            'boost::sp_adl_block' => 1,
                            'boost::system' => 1,
                            'boost::system::errc' => 1,
                            'boost::this_thread' => 1,
                            'boost::thread_cv_detail' => 1,
                            'boost::thread_detail' => 1,
                            'boost::tt_align_ns' => 1,
                            'boost::type_traits' => 1,
                            'boost::typeindex' => 1,
                            'capnp' => 1,
                            'capnp::_' => 1,
                            'capnp::schemas' => 1,
                            'core' => 1,
                            'core::net' => 1,
                            'core::net::http' => 1,
                            'core::posix' => 1,
                            'core::posix::exit' => 1,
                            'core::posix::wait' => 1,
                            'kj' => 1,
                            'kj::_' => 1,
                            'mpl_' => 1,
                            'proto2' => 1,
                            'std' => 1,
                            'std::_V2' => 1,
                            'std::__cxx11' => 1,
                            'std::__detail' => 1,
                            'std::__exception_ptr' => 1,
                            'std::chrono' => 1,
                            'std::chrono::_V2' => 1,
                            'testing' => 1,
                            'testing::internal' => 1,
                            'testing::internal2' => 1,
                            'unity' => 1,
                            'unity::scopes' => 1,
                            'unity::scopes::experimental' => 1,
                            'unity::scopes::internal' => 1,
                            'unity::scopes::internal::reaper_private' => 1,
                            'unity::scopes::internal::smartscopes' => 1,
                            'unity::scopes::internal::tag' => 1,
                            'unity::scopes::internal::zmq_middleware' => 1,
                            'unity::scopes::internal::zmq_middleware::capnproto' => 1,
                            'unity::scopes::internal::zmq_middleware::capnproto::Query' => 1,
                            'unity::scopes::internal::zmq_middleware::capnproto::Registry' => 1,
                            'unity::scopes::internal::zmq_middleware::capnproto::Reply' => 1,
                            'unity::scopes::internal::zmq_middleware::capnproto::Scope' => 1,
                            'unity::scopes::internal::zmq_middleware::capnproto::StateReceiver' => 1,
                            'unity::scopes::testing' => 1,
                            'unity::scopes::utility' => 1,
                            'unity::scopes::utility::internal' => 1,
                            'unity::util' => 1,
                            'unity::util::internal' => 1,
                            'zmqpp' => 1
                          },
          'Needed' => {
                        'ld-linux-armhf.so.3' => 1,
                        'libaccounts-glib.so.0' => 1,
                        'libapparmor.so.1' => 1,
                        'libboost_filesystem.so.1.58.0' => 1,
                        'libboost_log.so.1.58.0' => 1,
                        'libboost_serialization.so.1.58.0' => 1,
                        'libboost_system.so.1.58.0' => 1,
                        'libboost_thread.so.1.58.0' => 1,
                        'libc.so.6' => 1,
                        'libcapnp-0.4.0.so' => 1,
                        'libdl.so.2' => 1,
                        'libgcc_s.so.1' => 1,
                        'libglib-2.0.so.0' => 1,
                        'libgobject-2.0.so.0' => 1,
                        'libjsoncpp.so.0' => 1,
                        'libm.so.6' => 1,
                        'libnet-cpp.so.2' => 1,
                        'libprocess-cpp.so.3' => 1,
                        'libpthread.so.0' => 1,
                        'libsignon-glib.so.1' => 1,
                        'libstdc++.so.6' => 1,
                        'libunity-api.so.0' => 1,
                        'libzmq.so.3' => 1,
                        'libzmqpp.so.3' => 1
                      },
          'PublicABI' => '1',
          'Sources' => {
                         'ActionMetadata.cpp' => 1,
                         'ActivationListenerBase.cpp' => 1,
                         'ActivationQueryBase.cpp' => 1,
                         'ActivationResponse.cpp' => 1,
                         'Annotation.cpp' => 1,
                         'Benchmark.cpp' => 1,
                         'BufferedResultForwarder.cpp' => 1,
                         'CannedQuery.cpp' => 1,
                         'CategorisedResult.cpp' => 1,
                         'Category.cpp' => 1,
                         'CategoryRenderer.cpp' => 1,
                         'ChildScope.cpp' => 1,
                         'ColumnLayout.cpp' => 1,
                         'CompletionDetails.cpp' => 1,
                         'DateTimePickerFilter.cpp' => 1,
                         'Department.cpp' => 1,
                         'FilterBase.cpp' => 1,
                         'FilterOption.cpp' => 1,
                         'FilterState.cpp' => 1,
                         'HttpClientNetCpp.cpp' => 1,
                         'InProcessBenchmark.cpp' => 1,
                         'Link.cpp' => 1,
                         'ListenerBase.cpp' => 1,
                         'Location.cpp' => 1,
                         'Object.cpp' => 1,
                         'OnlineAccountClient.cpp' => 1,
                         'OperationInfo.cpp' => 1,
                         'OptionSelectorFilter.cpp' => 1,
                         'OutOfProcessBenchmark.cpp' => 1,
                         'PreviewListenerBase.cpp' => 1,
                         'PreviewQueryBase.cpp' => 1,
                         'PreviewWidget.cpp' => 1,
                         'QueryBase.cpp' => 1,
                         'QueryCtrl.cpp' => 1,
                         'QueryMetadata.cpp' => 1,
                         'RadioButtonsFilter.cpp' => 1,
                         'RangeInputFilter.cpp' => 1,
                         'RatingFilter.cpp' => 1,
                         'Result.cpp' => 1,
                         'Runtime.cpp' => 1,
                         'Scope.cpp' => 1,
                         'ScopeBase.cpp' => 1,
                         'ScopeExceptions.cpp' => 1,
                         'ScopeMetadata.cpp' => 1,
                         'ScopeMetadataBuilder.cpp' => 1,
                         'SearchListenerBase.cpp' => 1,
                         'SearchMetadata.cpp' => 1,
                         'SearchQueryBase.cpp' => 1,
                         'SwitchFilter.cpp' => 1,
                         'ValueSliderFilter.cpp' => 1,
                         'Variant.cpp' => 1,
                         'VariantBuilder.cpp' => 1,
                         'Version.cpp' => 1,
                         'atomic' => 1,
                         'bitset' => 1,
                         'chrono' => 1,
                         'condition_variable' => 1,
                         'functional' => 1,
                         'future' => 1,
                         'initializer_list' => 1,
                         'iosfwd' => 1,
                         'mutex' => 1,
                         'ratio' => 1,
                         'thread' => 1,
                         'tuple' => 1,
                         'type_traits' => 1
                       },
          'SymbolInfo' => {
                            '106552' => {
                                          'Class' => '106151',
                                          'Header' => 'Variant.h',
                                          'Line' => '106',
                                          'MnglName' => '_ZN5unity6scopes7Variant4nullEv',
                                          'Return' => '111520',
                                          'ShortName' => 'null',
                                          'Static' => 1
                                        },
                            '106674' => {
                                          'Class' => '106151',
                                          'Header' => 'Variant.h',
                                          'Line' => '119',
                                          'MnglName' => '_ZN5unity6scopes7VariantaSERKS1_',
                                          'Param' => {
                                                       '0' => {
                                                                'name' => 'this',
                                                                'type' => '111502'
                                                              },
                                                       '1' => {
                                                                'name' => 'p1',
                                                                'type' => '111520'
                                                              }
                                                     },
                                          'Return' => '111532',
                                          'ShortName' => 'operator='
                                        },
                            '106709' => {
                                          'Class' => '106151',
                                          'Header' => 'Variant.h',
                                          'Line' => '120',
                                          'MnglName' => '_ZN5unity6scopes7VariantaSEOS1_',
                                          'Param' => {
                                                       '0' => {
                                                                'name' => 'this',
                                                                'type' => '111502'
                                                              },
                                                       '1' => {
                                                                'name' => 'p1',
                                                                'type' => '111526'
                                                              }
                                                     },
                                          'Return' => '111532',
                                          'ShortName' => 'operator='
                                        },
                            '106744' => {
                                          'Class' => '106151',
                                          'Header' => 'Variant.h',
                                          'Line' => '129',
                                          'MnglName' => '_ZN5unity6scopes7VariantaSEi',
                                          'Param' => {
                                                       '0' => {
                                                                'name' => 'this',
                                                                'type' => '111502'
                                                              },
                                                       '1' => {
                                                                'name' => 'p1',
                                                                'type' => '37583'
                                                              }
                                                     },
                                          'Return' => '111532',
                                          'ShortName' => 'operator='
                                        },
                            '106779' => {
                                          'Class' => '106151',
                                          'Header' => 'Variant.h',
                                          'Line' => '130',
                                          'MnglName' => '_ZN5unity6scopes7VariantaSEx',
                                          'Param' => {
                                                       '0' => {
                                                                'name' => 'this',
                                                                'type' => '111502'
                                                              },
                                                       '1' => {
                                                                'name' => 'p1',
                                                                'type' => '40508'
                                                              }
                                                     },
                                          'Return' => '111532',
                                          'ShortName' => 'operator='
                                        },
                            '106814' => {
                                          'Class' => '106151',
                                          'Header' => 'Variant.h',
                                          'Line' => '131',
                                          'MnglName' => '_ZN5unity6scopes7VariantaSEd',
                                          'Param' => {
                                                       '0' => {
                                                                'name' => 'this',
                                                                'type' => '111502'
                                                              },
                                                       '1' => {
                                                                'name' => 'p1',
                                                                'type' => '37611'
                                                              }
                                                     },
                                          'Return' => '111532',
                                          'ShortName' => 'operator='
                                        },
                            '106849' => {
                                          'Class' => '106151',
                                          'Header' => 'Variant.h',
                                          'Line' => '132',
                                          'MnglName' => '_ZN5unity6scopes7VariantaSEb',
                                          'Param' => {
                                                       '0' => {
                                                                'name' => 'this',
                                                                'type' => '111502'
                                                              },
                                                       '1' => {
                                                                'name' => 'p1',
                                                                'type' => '37625'
                                                              }
                                                     },
                                          'Return' => '111532',
                                          'ShortName' => 'operator='
                                        },
                            '106884' => {
                                          'Class' => '106151',
                                          'Header' => 'Variant.h',
                                          'Line' => '133',
                                          'MnglName' => '_ZN5unity6scopes7VariantaSERKNSt7__cxx1112basic_stringIcSt11char_traitsIcESaIcEEE',
                                          'Param' => {
                                                       '0' => {
                                                                'name' => 'this',
                                                                'type' => '111502'
                                                              },
                                                       '1' => {
                                                                'name' => 'p1',
                                                                'type' => '43056'
                                                              }
                                                     },
                                          'Return' => '111532',
                                          'ShortName' => 'operator='
                                        },
                            '106919' => {
                                          'Class' => '106151',
                                          'Header' => 'Variant.h',
                                          'Line' => '134',
                                          'MnglName' => '_ZN5unity6scopes7VariantaSEPKc',
                                          'Param' => {
                                                       '0' => {
                                                                'name' => 'this',
                                                                'type' => '111502'
                                                              },
                                                       '1' => {
                                                                'name' => 'p1',
                                                                'type' => '37737'
                                                              }
                                                     },
                                          'Return' => '111532',
                                          'ShortName' => 'operator='
                                        },
                            '106954' => {
                                          'Class' => '106151',
                                          'Header' => 'Variant.h',
                                          'Line' => '135',
                                          'MnglName' => '_ZN5unity6scopes7VariantaSERKSt3mapINSt7__cxx1112basic_stringIcSt11char_traitsIcESaIcEEES1_St4lessIS8_ESaISt4pairIKS8_S1_EEE',
                                          'Param' => {
                                                       '0' => {
                                                                'name' => 'this',
                                                                'type' => '111502'
                                                              },
                                                       '1' => {
                                                                'name' => 'p1',
                                                                'type' => '111508'
                                                              }
                                                     },
                                          'Return' => '111532',
                                          'ShortName' => 'operator='
                                        },
                            '106989' => {
                                          'Class' => '106151',
                                          'Header' => 'Variant.h',
                                          'Line' => '136',
                                          'MnglName' => '_ZN5unity6scopes7VariantaSERKSt6vectorIS1_SaIS1_EE',
                                          'Param' => {
                                                       '0' => {
                                                                'name' => 'this',
                                                                'type' => '111502'
                                                              },
                                                       '1' => {
                                                                'name' => 'p1',
                                                                'type' => '111514'
                                                              }
                                                     },
                                          'Return' => '111532',
                                          'ShortName' => 'operator='
                                        },
                            '107024' => {
                                          'Class' => '106151',
                                          'Const' => 1,
                                          'Header' => 'Variant.h',
                                          'Line' => '147',
                                          'MnglName' => '_ZNK5unity6scopes7VarianteqERKS1_',
                                          'Param' => {
                                                       '0' => {
                                                                'name' => 'this',
                                                                'type' => '111538'
                                                              },
                                                       '1' => {
                                                                'name' => 'p1',
                                                                'type' => '111520'
                                                              }
                                                     },
                                          'Return' => '37625',
                                          'ShortName' => 'operator=='
                                        },
                            '107059' => {
                                          'Class' => '106151',
                                          'Const' => 1,
                                          'Header' => 'Variant.h',
                                          'Line' => '148',
                                          'MnglName' => '_ZNK5unity6scopes7VariantltERKS1_',
                                          'Param' => {
                                                       '0' => {
                                                                'name' => 'this',
                                                                'type' => '111538'
                                                              },
                                                       '1' => {
                                                                'name' => 'p1',
                                                                'type' => '111520'
                                                              }
                                                     },
                                          'Return' => '37625',
                                          'ShortName' => 'operator<'
                                        },
                            '107094' => {
                                          'Class' => '106151',
                                          'Const' => 1,
                                          'Header' => 'Variant.h',
                                          'Line' => '157',
                                          'MnglName' => '_ZNK5unity6scopes7Variant7get_intEv',
                                          'Param' => {
                                                       '0' => {
                                                                'name' => 'this',
                                                                'type' => '111538'
                                                              }
                                                     },
                                          'Return' => '37583',
                                          'ShortName' => 'get_int'
                                        },
                            '107124' => {
                                          'Class' => '106151',
                                          'Const' => 1,
                                          'Header' => 'Variant.h',
                                          'Line' => '158',
                                          'MnglName' => '_ZNK5unity6scopes7Variant11get_int64_tEv',
                                          'Param' => {
                                                       '0' => {
                                                                'name' => 'this',
                                                                'type' => '111538'
                                                              }
                                                     },
                                          'Return' => '40508',
                                          'ShortName' => 'get_int64_t'
                                        },
                            '107154' => {
                                          'Class' => '106151',
                                          'Const' => 1,
                                          'Header' => 'Variant.h',
                                          'Line' => '159',
                                          'MnglName' => '_ZNK5unity6scopes7Variant10get_doubleEv',
                                          'Param' => {
                                                       '0' => {
                                                                'name' => 'this',
                                                                'type' => '111538'
                                                              }
                                                     },
                                          'Return' => '37611',
                                          'ShortName' => 'get_double'
                                        },
                            '107184' => {
                                          'Class' => '106151',
                                          'Const' => 1,
                                          'Header' => 'Variant.h',
                                          'Line' => '160',
                                          'MnglName' => '_ZNK5unity6scopes7Variant8get_boolEv',
                                          'Param' => {
                                                       '0' => {
                                                                'name' => 'this',
                                                                'type' => '111538'
                                                              }
                                                     },
                                          'Return' => '37625',
                                          'ShortName' => 'get_bool'
                                        },
                            '107214' => {
                                          'Class' => '106151',
                                          'Const' => 1,
                                          'Header' => 'Variant.h',
                                          'Line' => '161',
                                          'MnglName' => '_ZNK5unity6scopes7Variant10get_stringB5cxx11Ev',
                                          'Param' => {
                                                       '0' => {
                                                                'name' => 'this',
                                                                'type' => '111538'
                                                              }
                                                     },
                                          'Return' => '6735',
                                          'ShortName' => 'get_string'
                                        },
                            '107244' => {
                                          'Class' => '106151',
                                          'Const' => 1,
                                          'Header' => 'Variant.h',
                                          'Line' => '162',
                                          'MnglName' => '_ZNK5unity6scopes7Variant8get_dictB5cxx11Ev',
                                          'Param' => {
                                                       '0' => {
                                                                'name' => 'this',
                                                                'type' => '111538'
                                                              }
                                                     },
                                          'Return' => '107541',
                                          'ShortName' => 'get_dict'
                                        },
                            '107274' => {
                                          'Class' => '106151',
                                          'Const' => 1,
                                          'Header' => 'Variant.h',
                                          'Line' => '163',
                                          'MnglName' => '_ZNK5unity6scopes7Variant9get_arrayEv',
                                          'Param' => {
                                                       '0' => {
                                                                'name' => 'this',
                                                                'type' => '111538'
                                                              }
                                                     },
                                          'Return' => '107557',
                                          'ShortName' => 'get_array'
                                        },
                            '107304' => {
                                          'Class' => '106151',
                                          'Const' => 1,
                                          'Header' => 'Variant.h',
                                          'Line' => '169',
                                          'MnglName' => '_ZNK5unity6scopes7Variant7is_nullEv',
                                          'Param' => {
                                                       '0' => {
                                                                'name' => 'this',
                                                                'type' => '111538'
                                                              }
                                                     },
                                          'Return' => '37625',
                                          'ShortName' => 'is_null'
                                        },
                            '107334' => {
                                          'Class' => '106151',
                                          'Const' => 1,
                                          'Header' => 'Variant.h',
                                          'Line' => '177',
                                          'MnglName' => '_ZNK5unity6scopes7Variant5whichEv',
                                          'Param' => {
                                                       '0' => {
                                                                'name' => 'this',
                                                                'type' => '111538'
                                                              }
                                                     },
                                          'Return' => '106163',
                                          'ShortName' => 'which'
                                        },
                            '107364' => {
                                          'Class' => '106151',
                                          'Header' => 'Variant.h',
                                          'Line' => '184',
                                          'MnglName' => '_ZN5unity6scopes7Variant4swapERS1_',
                                          'Param' => {
                                                       '0' => {
                                                                'name' => 'this',
                                                                'type' => '111502'
                                                              },
                                                       '1' => {
                                                                'name' => 'p1',
                                                                'type' => '111532'
                                                              }
                                                     },
                                          'Return' => '1',
                                          'ShortName' => 'swap'
                                        },
                            '107395' => {
                                          'Class' => '106151',
                                          'Const' => 1,
                                          'Header' => 'Variant.h',
                                          'Line' => '192',
                                          'MnglName' => '_ZNK5unity6scopes7Variant14serialize_jsonB5cxx11Ev',
                                          'Param' => {
                                                       '0' => {
                                                                'name' => 'this',
                                                                'type' => '111538'
                                                              }
                                                     },
                                          'Return' => '6735',
                                          'ShortName' => 'serialize_json'
                                        },
                            '107425' => {
                                          'Class' => '106151',
                                          'Header' => 'Variant.h',
                                          'Line' => '196',
                                          'MnglName' => '_ZN5unity6scopes7Variant16deserialize_jsonERKNSt7__cxx1112basic_stringIcSt11char_traitsIcESaIcEEE',
                                          'Param' => {
                                                       '0' => {
                                                                'name' => 'p1',
                                                                'type' => '43056'
                                                              }
                                                     },
                                          'Return' => '106151',
                                          'ShortName' => 'deserialize_json',
                                          'Static' => 1
                                        },
                            '107636' => {
                                          'Class' => '107578',
                                          'Const' => 1,
                                          'Header' => 'FilterState.h',
                                          'Line' => '53',
                                          'MnglName' => '_ZNK5unity6scopes11FilterState9serializeB5cxx11Ev',
                                          'Param' => {
                                                       '0' => {
                                                                'name' => 'this',
                                                                'type' => '111795'
                                                              }
                                                     },
                                          'Return' => '107541',
                                          'ShortName' => 'serialize'
                                        },
                            '107666' => {
                                          'Class' => '107578',
                                          'Header' => 'FilterState.h',
                                          'Line' => '54',
                                          'MnglName' => '_ZN5unity6scopes11FilterState11deserializeERKSt3mapINSt7__cxx1112basic_stringIcSt11char_traitsIcESaIcEEENS0_7VariantESt4lessIS8_ESaISt4pairIKS8_S9_EEE',
                                          'Param' => {
                                                       '0' => {
                                                                'name' => 'p1',
                                                                'type' => '111508'
                                                              }
                                                     },
                                          'Return' => '107578',
                                          'ShortName' => 'deserialize',
                                          'Static' => 1
                                        },
                            '107792' => {
                                          'Class' => '107578',
                                          'Header' => 'FilterState.h',
                                          'Line' => '68',
                                          'MnglName' => '_ZN5unity6scopes11FilterStateaSERKS1_',
                                          'Param' => {
                                                       '0' => {
                                                                'name' => 'this',
                                                                'type' => '111789'
                                                              },
                                                       '1' => {
                                                                'name' => 'p1',
                                                                'type' => '111801'
                                                              }
                                                     },
                                          'Return' => '111813',
                                          'ShortName' => 'operator='
                                        },
                            '107827' => {
                                          'Class' => '107578',
                                          'Header' => 'FilterState.h',
                                          'Line' => '69',
                                          'MnglName' => '_ZN5unity6scopes11FilterStateaSEOS1_',
                                          'Param' => {
                                                       '0' => {
                                                                'name' => 'this',
                                                                'type' => '111789'
                                                              },
                                                       '1' => {
                                                                'name' => 'p1',
                                                                'type' => '111807'
                                                              }
                                                     },
                                          'Return' => '111813',
                                          'ShortName' => 'operator='
                                        },
                            '107862' => {
                                          'Class' => '107578',
                                          'Const' => 1,
                                          'Header' => 'FilterState.h',
                                          'Line' => '76',
                                          'MnglName' => '_ZNK5unity6scopes11FilterState10has_filterERKNSt7__cxx1112basic_stringIcSt11char_traitsIcESaIcEEE',
                                          'Param' => {
                                                       '0' => {
                                                                'name' => 'this',
                                                                'type' => '111795'
                                                              },
                                                       '1' => {
                                                                'name' => 'p1',
                                                                'type' => '43056'
                                                              }
                                                     },
                                          'Return' => '37625',
                                          'ShortName' => 'has_filter'
                                        },
                            '107897' => {
                                          'Class' => '107578',
                                          'Header' => 'FilterState.h',
                                          'Line' => '82',
                                          'MnglName' => '_ZN5unity6scopes11FilterState6removeERKNSt7__cxx1112basic_stringIcSt11char_traitsIcESaIcEEE',
                                          'Param' => {
                                                       '0' => {
                                                                'name' => 'this',
                                                                'type' => '111789'
                                                              },
                                                       '1' => {
                                                                'name' => 'p1',
                                                                'type' => '43056'
                                                              }
                                                     },
                                          'Return' => '1',
                                          'ShortName' => 'remove'
                                        },
                            '108137' => {
                                          'Class' => '107964',
                                          'Header' => 'CannedQuery.h',
                                          'Line' => '72',
                                          'MnglName' => '_ZN5unity6scopes11CannedQueryaSERKS1_',
                                          'Param' => {
                                                       '0' => {
                                                                'name' => 'this',
                                                                'type' => '112052'
                                                              },
                                                       '1' => {
                                                                'name' => 'p1',
                                                                'type' => '112058'
                                                              }
                                                     },
                                          'Return' => '112070',
                                          'ShortName' => 'operator='
                                        },
                            '108172' => {
                                          'Class' => '107964',
                                          'Header' => 'CannedQuery.h',
                                          'Line' => '73',
                                          'MnglName' => '_ZN5unity6scopes11CannedQueryaSEOS1_',
                                          'Param' => {
                                                       '0' => {
                                                                'name' => 'this',
                                                                'type' => '112052'
                                                              },
                                                       '1' => {
                                                                'name' => 'p1',
                                                                'type' => '112064'
                                                              }
                                                     },
                                          'Return' => '112070',
                                          'ShortName' => 'operator='
                                        },
                            '108242' => {
                                          'Class' => '107964',
                                          'Header' => 'CannedQuery.h',
                                          'Line' => '83',
                                          'MnglName' => '_ZN5unity6scopes11CannedQuery17set_department_idERKNSt7__cxx1112basic_stringIcSt11char_traitsIcESaIcEEE',
                                          'Param' => {
                                                       '0' => {
                                                                'name' => 'this',
                                                                'type' => '112052'
                                                              },
                                                       '1' => {
                                                                'name' => 'p1',
                                                                'type' => '43056'
                                                              }
                                                     },
                                          'Return' => '1',
                                          'ShortName' => 'set_department_id'
                                        },
                            '108273' => {
                                          'Class' => '107964',
                                          'Header' => 'CannedQuery.h',
                                          'Line' => '88',
                                          'MnglName' => '_ZN5unity6scopes11CannedQuery16set_query_stringERKNSt7__cxx1112basic_stringIcSt11char_traitsIcESaIcEEE',
                                          'Param' => {
                                                       '0' => {
                                                                'name' => 'this',
                                                                'type' => '112052'
                                                              },
                                                       '1' => {
                                                                'name' => 'p1',
                                                                'type' => '43056'
                                                              }
                                                     },
                                          'Return' => '1',
                                          'ShortName' => 'set_query_string'
                                        },
                            '108304' => {
                                          'Class' => '107964',
                                          'Header' => 'CannedQuery.h',
                                          'Line' => '93',
                                          'MnglName' => '_ZN5unity6scopes11CannedQuery16set_filter_stateERKNS0_11FilterStateE',
                                          'Param' => {
                                                       '0' => {
                                                                'name' => 'this',
                                                                'type' => '112052'
                                                              },
                                                       '1' => {
                                                                'name' => 'p1',
                                                                'type' => '111801'
                                                              }
                                                     },
                                          'Return' => '1',
                                          'ShortName' => 'set_filter_state'
                                        },
                            '108335' => {
                                          'Class' => '107964',
                                          'Const' => 1,
                                          'Header' => 'CannedQuery.h',
                                          'Line' => '99',
                                          'MnglName' => '_ZNK5unity6scopes11CannedQuery8scope_idB5cxx11Ev',
                                          'Param' => {
                                                       '0' => {
                                                                'name' => 'this',
                                                                'type' => '112076'
                                                              }
                                                     },
                                          'Return' => '6735',
                                          'ShortName' => 'scope_id'
                                        },
                            '108365' => {
                                          'Class' => '107964',
                                          'Const' => 1,
                                          'Header' => 'CannedQuery.h',
                                          'Line' => '105',
                                          'MnglName' => '_ZNK5unity6scopes11CannedQuery13department_idB5cxx11Ev',
                                          'Param' => {
                                                       '0' => {
                                                                'name' => 'this',
                                                                'type' => '112076'
                                                              }
                                                     },
                                          'Return' => '6735',
                                          'ShortName' => 'department_id'
                                        },
                            '108395' => {
                                          'Class' => '107964',
                                          'Const' => 1,
                                          'Header' => 'CannedQuery.h',
                                          'Line' => '111',
                                          'MnglName' => '_ZNK5unity6scopes11CannedQuery12query_stringB5cxx11Ev',
                                          'Param' => {
                                                       '0' => {
                                                                'name' => 'this',
                                                                'type' => '112076'
                                                              }
                                                     },
                                          'Return' => '6735',
                                          'ShortName' => 'query_string'
                                        },
                            '108425' => {
                                          'Class' => '107964',
                                          'Const' => 1,
                                          'Header' => 'CannedQuery.h',
                                          'Line' => '114',
                                          'MnglName' => '_ZNK5unity6scopes11CannedQuery9serializeB5cxx11Ev',
                                          'Param' => {
                                                       '0' => {
                                                                'name' => 'this',
                                                                'type' => '112076'
                                                              }
                                                     },
                                          'Return' => '107541',
                                          'ShortName' => 'serialize'
                                        },
                            '108455' => {
                                          'Class' => '107964',
                                          'Const' => 1,
                                          'Header' => 'CannedQuery.h',
                                          'Line' => '121',
                                          'MnglName' => '_ZNK5unity6scopes11CannedQuery6to_uriB5cxx11Ev',
                                          'Param' => {
                                                       '0' => {
                                                                'name' => 'this',
                                                                'type' => '112076'
                                                              }
                                                     },
                                          'Return' => '6735',
                                          'ShortName' => 'to_uri'
                                        },
                            '108485' => {
                                          'Class' => '107964',
                                          'Const' => 1,
                                          'Header' => 'CannedQuery.h',
                                          'Line' => '130',
                                          'MnglName' => '_ZNK5unity6scopes11CannedQuery12filter_stateEv',
                                          'Param' => {
                                                       '0' => {
                                                                'name' => 'this',
                                                                'type' => '112076'
                                                              }
                                                     },
                                          'Return' => '107578',
                                          'ShortName' => 'filter_state'
                                        },
                            '108515' => {
                                          'Class' => '107964',
                                          'Header' => 'CannedQuery.h',
                                          'Line' => '138',
                                          'MnglName' => '_ZN5unity6scopes11CannedQuery8from_uriERKNSt7__cxx1112basic_stringIcSt11char_traitsIcESaIcEEE',
                                          'Param' => {
                                                       '0' => {
                                                                'name' => 'p1',
                                                                'type' => '43056'
                                                              }
                                                     },
                                          'Return' => '107964',
                                          'ShortName' => 'from_uri',
                                          'Static' => 1
                                        },
                            '108541' => {
                                          'Class' => '107964',
                                          'Header' => 'CannedQuery.h',
                                          'Line' => '145',
                                          'MnglName' => '_ZN5unity6scopes11CannedQuery13set_user_dataERKNS0_7VariantE',
                                          'Param' => {
                                                       '0' => {
                                                                'name' => 'this',
                                                                'type' => '112052'
                                                              },
                                                       '1' => {
                                                                'name' => 'p1',
                                                                'type' => '111520'
                                                              }
                                                     },
                                          'Return' => '1',
                                          'ShortName' => 'set_user_data'
                                        },
                            '108572' => {
                                          'Class' => '107964',
                                          'Const' => 1,
                                          'Header' => 'CannedQuery.h',
                                          'Line' => '152',
                                          'MnglName' => '_ZNK5unity6scopes11CannedQuery13has_user_dataEv',
                                          'Param' => {
                                                       '0' => {
                                                                'name' => 'this',
                                                                'type' => '112076'
                                                              }
                                                     },
                                          'Return' => '37625',
                                          'ShortName' => 'has_user_data'
                                        },
                            '108602' => {
                                          'Class' => '107964',
                                          'Const' => 1,
                                          'Header' => 'CannedQuery.h',
                                          'Line' => '160',
                                          'MnglName' => '_ZNK5unity6scopes11CannedQuery9user_dataEv',
                                          'Param' => {
                                                       '0' => {
                                                                'name' => 'this',
                                                                'type' => '112076'
                                                              }
                                                     },
                                          'Return' => '106151',
                                          'ShortName' => 'user_data'
                                        },
                            '108715' => {
                                          'Class' => '108668',
                                          'Header' => 'Department.h',
                                          'Line' => '64',
                                          'MnglName' => '_ZN5unity6scopes10Department6createERKNS0_11CannedQueryERKNSt7__cxx1112basic_stringIcSt11char_traitsIcESaIcEEE',
                                          'Param' => {
                                                       '0' => {
                                                                'name' => 'p1',
                                                                'type' => '112058'
                                                              },
                                                       '1' => {
                                                                'name' => 'p2',
                                                                'type' => '43056'
                                                              }
                                                     },
                                          'Return' => '108703',
                                          'ShortName' => 'create',
                                          'Static' => 1
                                        },
                            '108746' => {
                                          'Class' => '108668',
                                          'Header' => 'Department.h',
                                          'Line' => '77',
                                          'MnglName' => '_ZN5unity6scopes10Department6createERKNSt7__cxx1112basic_stringIcSt11char_traitsIcESaIcEEERKNS0_11CannedQueryES9_',
                                          'Param' => {
                                                       '0' => {
                                                                'name' => 'p1',
                                                                'type' => '43056'
                                                              },
                                                       '1' => {
                                                                'name' => 'p2',
                                                                'type' => '112058'
                                                              },
                                                       '2' => {
                                                                'name' => 'p3',
                                                                'type' => '43056'
                                                              }
                                                     },
                                          'Return' => '108703',
                                          'ShortName' => 'create',
                                          'Static' => 1
                                        },
                            '108852' => {
                                          'Class' => '108668',
                                          'Header' => 'Department.h',
                                          'Line' => '85',
                                          'MnglName' => '_ZN5unity6scopes10DepartmentaSERKS1_',
                                          'Param' => {
                                                       '0' => {
                                                                'name' => 'this',
                                                                'type' => '112315'
                                                              },
                                                       '1' => {
                                                                'name' => 'p1',
                                                                'type' => '112321'
                                                              }
                                                     },
                                          'Return' => '112333',
                                          'ShortName' => 'operator='
                                        },
                            '108887' => {
                                          'Class' => '108668',
                                          'Header' => 'Department.h',
                                          'Line' => '86',
                                          'MnglName' => '_ZN5unity6scopes10DepartmentaSEOS1_',
                                          'Param' => {
                                                       '0' => {
                                                                'name' => 'this',
                                                                'type' => '112315'
                                                              },
                                                       '1' => {
                                                                'name' => 'p1',
                                                                'type' => '112327'
                                                              }
                                                     },
                                          'Return' => '112333',
                                          'ShortName' => 'operator='
                                        },
                            '108957' => {
                                          'Class' => '108668',
                                          'Header' => 'Department.h',
                                          'Line' => '97',
                                          'MnglName' => '_ZN5unity6scopes10Department18set_subdepartmentsERKNSt7__cxx114listISt10shared_ptrIKS1_ESaIS6_EEE',
                                          'Param' => {
                                                       '0' => {
                                                                'name' => 'this',
                                                                'type' => '112315'
                                                              },
                                                       '1' => {
                                                                'name' => 'p1',
                                                                'type' => '112339'
                                                              }
                                                     },
                                          'Return' => '1',
                                          'ShortName' => 'set_subdepartments'
                                        },
                            '108988' => {
                                          'Class' => '108668',
                                          'Header' => 'Department.h',
                                          'Line' => '103',
                                          'MnglName' => '_ZN5unity6scopes10Department17add_subdepartmentERKSt10shared_ptrIKS1_E',
                                          'Param' => {
                                                       '0' => {
                                                                'name' => 'this',
                                                                'type' => '112315'
                                                              },
                                                       '1' => {
                                                                'name' => 'p1',
                                                                'type' => '112345'
                                                              }
                                                     },
                                          'Return' => '1',
                                          'ShortName' => 'add_subdepartment'
                                        },
                            '109024' => {
                                          'Class' => '108668',
                                          'Header' => 'Department.h',
                                          'Line' => '113',
                                          'MnglName' => '_ZN5unity6scopes10Department19set_alternate_labelERKNSt7__cxx1112basic_stringIcSt11char_traitsIcESaIcEEE',
                                          'Param' => {
                                                       '0' => {
                                                                'name' => 'this',
                                                                'type' => '112315'
                                                              },
                                                       '1' => {
                                                                'name' => 'p1',
                                                                'type' => '43056'
                                                              }
                                                     },
                                          'Return' => '1',
                                          'ShortName' => 'set_alternate_label'
                                        },
                            '109055' => {
                                          'Class' => '108668',
                                          'Header' => 'Department.h',
                                          'Line' => '125',
                                          'MnglName' => '_ZN5unity6scopes10Department22set_has_subdepartmentsEb',
                                          'Param' => {
                                                       '0' => {
                                                                'name' => 'this',
                                                                'type' => '112315'
                                                              },
                                                       '1' => {
                                                                'name' => 'p1',
                                                                'type' => '37625'
                                                              }
                                                     },
                                          'Return' => '1',
                                          'ShortName' => 'set_has_subdepartments'
                                        },
                            '109086' => {
                                          'Class' => '108668',
                                          'Const' => 1,
                                          'Header' => 'Department.h',
                                          'Line' => '131',
                                          'MnglName' => '_ZNK5unity6scopes10Department2idB5cxx11Ev',
                                          'Param' => {
                                                       '0' => {
                                                                'name' => 'this',
                                                                'type' => '112351'
                                                              }
                                                     },
                                          'Return' => '6735',
                                          'ShortName' => 'id'
                                        },
                            '109115' => {
                                          'Class' => '108668',
                                          'Const' => 1,
                                          'Header' => 'Department.h',
                                          'Line' => '137',
                                          'MnglName' => '_ZNK5unity6scopes10Department5labelB5cxx11Ev',
                                          'Param' => {
                                                       '0' => {
                                                                'name' => 'this',
                                                                'type' => '112351'
                                                              }
                                                     },
                                          'Return' => '6735',
                                          'ShortName' => 'label'
                                        },
                            '109145' => {
                                          'Class' => '108668',
                                          'Const' => 1,
                                          'Header' => 'Department.h',
                                          'Line' => '148',
                                          'MnglName' => '_ZNK5unity6scopes10Department15alternate_labelB5cxx11Ev',
                                          'Param' => {
                                                       '0' => {
                                                                'name' => 'this',
                                                                'type' => '112351'
                                                              }
                                                     },
                                          'Return' => '6735',
                                          'ShortName' => 'alternate_label'
                                        },
                            '109175' => {
                                          'Class' => '108668',
                                          'Const' => 1,
                                          'Header' => 'Department.h',
                                          'Line' => '154',
                                          'MnglName' => '_ZNK5unity6scopes10Department5queryEv',
                                          'Param' => {
                                                       '0' => {
                                                                'name' => 'this',
                                                                'type' => '112351'
                                                              }
                                                     },
                                          'Return' => '107964',
                                          'ShortName' => 'query'
                                        },
                            '109205' => {
                                          'Class' => '108668',
                                          'Const' => 1,
                                          'Header' => 'Department.h',
                                          'Line' => '160',
                                          'MnglName' => '_ZNK5unity6scopes10Department14subdepartmentsB5cxx11Ev',
                                          'Param' => {
                                                       '0' => {
                                                                'name' => 'this',
                                                                'type' => '112351'
                                                              }
                                                     },
                                          'Return' => '109331',
                                          'ShortName' => 'subdepartments'
                                        },
                            '109235' => {
                                          'Class' => '108668',
                                          'Const' => 1,
                                          'Header' => 'Department.h',
                                          'Line' => '166',
                                          'MnglName' => '_ZNK5unity6scopes10Department18has_subdepartmentsEv',
                                          'Param' => {
                                                       '0' => {
                                                                'name' => 'this',
                                                                'type' => '112351'
                                                              }
                                                     },
                                          'Return' => '37625',
                                          'ShortName' => 'has_subdepartments'
                                        },
                            '109265' => {
                                          'Class' => '108668',
                                          'Const' => 1,
                                          'Header' => 'Department.h',
                                          'Line' => '169',
                                          'MnglName' => '_ZNK5unity6scopes10Department9serializeB5cxx11Ev',
                                          'Param' => {
                                                       '0' => {
                                                                'name' => 'this',
                                                                'type' => '112351'
                                                              }
                                                     },
                                          'Return' => '107541',
                                          'ShortName' => 'serialize'
                                        },
                            '11039715' => {
                                            'Class' => '44741',
                                            'Const' => 1,
                                            'Header' => 'Result.h',
                                            'Line' => '235',
                                            'MnglName' => '_ZNK5unity6scopes6Result9serializeB5cxx11Ev',
                                            'Private' => 1,
                                            'Return' => '1',
                                            'ShortName' => 'serialize',
                                            'Source' => 'Result.cpp',
                                            'SourceLine' => '157',
                                            'Static' => 1
                                          },
                            '11039766' => {
                                            'Class' => '657044',
                                            'Const' => 1,
                                            'Header' => 'PreviewWidget.h',
                                            'Line' => '174',
                                            'MnglName' => '_ZNK5unity6scopes13PreviewWidget9serializeB5cxx11Ev',
                                            'Private' => 1,
                                            'Return' => '1',
                                            'ShortName' => 'serialize',
                                            'Source' => 'PreviewWidget.cpp',
                                            'SourceLine' => '512',
                                            'Static' => 1
                                          },
                            '11255145' => {
                                            'Class' => '11255052',
                                            'Header' => 'Link.h',
                                            'Line' => '54',
                                            'MnglName' => '_ZN5unity6scopes4LinkaSERKS1_',
                                            'Param' => {
                                                         '0' => {
                                                                  'name' => 'this',
                                                                  'type' => '11256501'
                                                                },
                                                         '1' => {
                                                                  'name' => 'p1',
                                                                  'type' => '11256507'
                                                                }
                                                       },
                                            'Return' => '11256519',
                                            'ShortName' => 'operator='
                                          },
                            '11255250' => {
                                            'Class' => '11255052',
                                            'Const' => 1,
                                            'Header' => 'Link.h',
                                            'Line' => '66',
                                            'MnglName' => '_ZNK5unity6scopes4Link5labelB5cxx11Ev',
                                            'Param' => {
                                                         '0' => {
                                                                  'name' => 'this',
                                                                  'type' => '11256525'
                                                                }
                                                       },
                                            'Return' => '6735',
                                            'ShortName' => 'label'
                                          },
                            '11255280' => {
                                            'Class' => '11255052',
                                            'Const' => 1,
                                            'Header' => 'Link.h',
                                            'Line' => '72',
                                            'MnglName' => '_ZNK5unity6scopes4Link5queryEv',
                                            'Param' => {
                                                         '0' => {
                                                                  'name' => 'this',
                                                                  'type' => '11256525'
                                                                }
                                                       },
                                            'Return' => '107964',
                                            'ShortName' => 'query'
                                          },
                            '11255310' => {
                                            'Class' => '11255052',
                                            'Const' => 1,
                                            'Header' => 'Link.h',
                                            'Line' => '75',
                                            'MnglName' => '_ZNK5unity6scopes4Link9serializeB5cxx11Ev',
                                            'Param' => {
                                                         '0' => {
                                                                  'name' => 'this',
                                                                  'type' => '11256525'
                                                                }
                                                       },
                                            'Return' => '107541',
                                            'ShortName' => 'serialize'
                                          },
                            '11552696' => {
                                            'Class' => '44746',
                                            'Const' => 1,
                                            'Header' => 'Category.h',
                                            'Line' => '63',
                                            'MnglName' => '_ZNK5unity6scopes8Category2idB5cxx11Ev',
                                            'Private' => 1,
                                            'Return' => '1',
                                            'ShortName' => 'id',
                                            'Source' => 'Category.cpp',
                                            'SourceLine' => '49',
                                            'Static' => 1
                                          },
                            '11668197' => {
                                            'Class' => '111185',
                                            'Const' => 1,
                                            'Header' => 'CategoryRenderer.h',
                                            'Line' => '121',
                                            'MnglName' => '_ZNK5unity6scopes16CategoryRenderer4dataB5cxx11Ev',
                                            'Private' => 1,
                                            'Return' => '1',
                                            'ShortName' => 'data',
                                            'Source' => 'CategoryRenderer.cpp',
                                            'SourceLine' => '162',
                                            'Static' => 1
                                          },
                            '11668212' => {
                                            'Class' => '111185',
                                            'Header' => 'CategoryRenderer.h',
                                            'Line' => '83',
                                            'MnglName' => '_ZN5unity6scopes16CategoryRendereraSEOS1_',
                                            'Private' => 1,
                                            'Return' => '1',
                                            'ShortName' => 'operator=',
                                            'Static' => 1
                                          },
                            '11767596' => {
                                            'Class' => '44746',
                                            'Const' => 1,
                                            'Header' => 'Category.h',
                                            'Line' => '90',
                                            'MnglName' => '_ZNK5unity6scopes8Category9serializeB5cxx11Ev',
                                            'Private' => 1,
                                            'Return' => '1',
                                            'ShortName' => 'serialize',
                                            'Source' => 'Category.cpp',
                                            'SourceLine' => '74',
                                            'Static' => 1
                                          },
                            '12434380' => {
                                            'Class' => '12434253',
                                            'Header' => 'DateTimePickerFilter.h',
                                            'Line' => '83',
                                            'MnglName' => '_ZN5unity6scopes12experimental20DateTimePickerFilter6createERKNSt7__cxx1112basic_stringIcSt11char_traitsIcESaIcEEESt6bitsetILj6EE',
                                            'Param' => {
                                                         '0' => {
                                                                  'name' => 'p1',
                                                                  'type' => '43056'
                                                                },
                                                         '1' => {
                                                                  'name' => 'p2',
                                                                  'type' => '12434269'
                                                                }
                                                       },
                                            'Return' => '12434300',
                                            'ShortName' => 'create',
                                            'Source' => 'DateTimePickerFilter.cpp',
                                            'SourceLine' => '36',
                                            'Static' => 1
                                          },
                            '12434411' => {
                                            'Class' => '12434253',
                                            'Header' => 'DateTimePickerFilter.h',
                                            'Line' => '91',
                                            'MnglName' => '_ZN5unity6scopes12experimental20DateTimePickerFilter14set_time_labelERKNSt7__cxx1112basic_stringIcSt11char_traitsIcESaIcEEE',
                                            'Param' => {
                                                         '0' => {
                                                                  'name' => 'this',
                                                                  'type' => '12441157'
                                                                },
                                                         '1' => {
                                                                  'name' => 'p1',
                                                                  'type' => '43056'
                                                                }
                                                       },
                                            'Return' => '1',
                                            'ShortName' => 'set_time_label',
                                            'Source' => 'DateTimePickerFilter.cpp',
                                            'SourceLine' => '41'
                                          },
                            '12434442' => {
                                            'Class' => '12434253',
                                            'Header' => 'DateTimePickerFilter.h',
                                            'Line' => '99',
                                            'MnglName' => '_ZN5unity6scopes12experimental20DateTimePickerFilter14set_date_labelERKNSt7__cxx1112basic_stringIcSt11char_traitsIcESaIcEEE',
                                            'Param' => {
                                                         '0' => {
                                                                  'name' => 'this',
                                                                  'type' => '12441157'
                                                                },
                                                         '1' => {
                                                                  'name' => 'p1',
                                                                  'type' => '43056'
                                                                }
                                                       },
                                            'Return' => '1',
                                            'ShortName' => 'set_date_label',
                                            'Source' => 'DateTimePickerFilter.cpp',
                                            'SourceLine' => '46'
                                          },
                            '12434473' => {
                                            'Class' => '12434253',
                                            'Header' => 'DateTimePickerFilter.h',
                                            'Line' => '107',
                                            'MnglName' => '_ZN5unity6scopes12experimental20DateTimePickerFilter11set_minimumERKNSt6chrono10time_pointINS3_3_V212system_clockENS3_8durationIxSt5ratioILx1ELx1000000000EEEEEE',
                                            'Param' => {
                                                         '0' => {
                                                                  'name' => 'this',
                                                                  'type' => '12441157'
                                                                },
                                                         '1' => {
                                                                  'name' => 'p1',
                                                                  'type' => '2401155'
                                                                }
                                                       },
                                            'Return' => '1',
                                            'ShortName' => 'set_minimum',
                                            'Source' => 'DateTimePickerFilter.cpp',
                                            'SourceLine' => '56'
                                          },
                            '12434504' => {
                                            'Class' => '12434253',
                                            'Header' => 'DateTimePickerFilter.h',
                                            'Line' => '115',
                                            'MnglName' => '_ZN5unity6scopes12experimental20DateTimePickerFilter11set_maximumERKNSt6chrono10time_pointINS3_3_V212system_clockENS3_8durationIxSt5ratioILx1ELx1000000000EEEEEE',
                                            'Param' => {
                                                         '0' => {
                                                                  'name' => 'this',
                                                                  'type' => '12441157'
                                                                },
                                                         '1' => {
                                                                  'name' => 'p1',
                                                                  'type' => '2401155'
                                                                }
                                                       },
                                            'Return' => '1',
                                            'ShortName' => 'set_maximum',
                                            'Source' => 'DateTimePickerFilter.cpp',
                                            'SourceLine' => '51'
                                          },
                            '12434535' => {
                                            'Class' => '12434253',
                                            'Const' => 1,
                                            'Header' => 'DateTimePickerFilter.h',
                                            'Line' => '122',
                                            'MnglName' => '_ZNK5unity6scopes12experimental20DateTimePickerFilter10time_labelB5cxx11Ev',
                                            'Param' => {
                                                         '0' => {
                                                                  'name' => 'this',
                                                                  'type' => '12441670'
                                                                }
                                                       },
                                            'Return' => '6735',
                                            'ShortName' => 'time_label',
                                            'Source' => 'DateTimePickerFilter.cpp',
                                            'SourceLine' => '61'
                                          },
                            '12434565' => {
                                            'Class' => '12434253',
                                            'Const' => 1,
                                            'Header' => 'DateTimePickerFilter.h',
                                            'Line' => '129',
                                            'MnglName' => '_ZNK5unity6scopes12experimental20DateTimePickerFilter10date_labelB5cxx11Ev',
                                            'Param' => {
                                                         '0' => {
                                                                  'name' => 'this',
                                                                  'type' => '12441670'
                                                                }
                                                       },
                                            'Return' => '6735',
                                            'ShortName' => 'date_label',
                                            'Source' => 'DateTimePickerFilter.cpp',
                                            'SourceLine' => '66'
                                          },
                            '12434595' => {
                                            'Class' => '12434253',
                                            'Const' => 1,
                                            'Header' => 'DateTimePickerFilter.h',
                                            'Line' => '136',
                                            'MnglName' => '_ZNK5unity6scopes12experimental20DateTimePickerFilter4modeEv',
                                            'Param' => {
                                                         '0' => {
                                                                  'name' => 'this',
                                                                  'type' => '12441670'
                                                                }
                                                       },
                                            'Return' => '12434269',
                                            'ShortName' => 'mode',
                                            'Source' => 'DateTimePickerFilter.cpp',
                                            'SourceLine' => '71'
                                          },
                            '12434625' => {
                                            'Class' => '12434253',
                                            'Const' => 1,
                                            'Header' => 'DateTimePickerFilter.h',
                                            'Line' => '143',
                                            'MnglName' => '_ZNK5unity6scopes12experimental20DateTimePickerFilter11has_minimumEv',
                                            'Param' => {
                                                         '0' => {
                                                                  'name' => 'this',
                                                                  'type' => '12441670'
                                                                }
                                                       },
                                            'Return' => '37625',
                                            'ShortName' => 'has_minimum',
                                            'Source' => 'DateTimePickerFilter.cpp',
                                            'SourceLine' => '76'
                                          },
                            '12434655' => {
                                            'Class' => '12434253',
                                            'Const' => 1,
                                            'Header' => 'DateTimePickerFilter.h',
                                            'Line' => '150',
                                            'MnglName' => '_ZNK5unity6scopes12experimental20DateTimePickerFilter11has_maximumEv',
                                            'Param' => {
                                                         '0' => {
                                                                  'name' => 'this',
                                                                  'type' => '12441670'
                                                                }
                                                       },
                                            'Return' => '37625',
                                            'ShortName' => 'has_maximum',
                                            'Source' => 'DateTimePickerFilter.cpp',
                                            'SourceLine' => '81'
                                          },
                            '12434685' => {
                                            'Class' => '12434253',
                                            'Const' => 1,
                                            'Header' => 'DateTimePickerFilter.h',
                                            'Line' => '158',
                                            'MnglName' => '_ZNK5unity6scopes12experimental20DateTimePickerFilter7minimumEv',
                                            'Param' => {
                                                         '0' => {
                                                                  'name' => 'this',
                                                                  'type' => '12441670'
                                                                }
                                                       },
                                            'Return' => '2136881',
                                            'ShortName' => 'minimum',
                                            'Source' => 'DateTimePickerFilter.cpp',
                                            'SourceLine' => '86'
                                          },
                            '12434715' => {
                                            'Class' => '12434253',
                                            'Const' => 1,
                                            'Header' => 'DateTimePickerFilter.h',
                                            'Line' => '166',
                                            'MnglName' => '_ZNK5unity6scopes12experimental20DateTimePickerFilter7maximumEv',
                                            'Param' => {
                                                         '0' => {
                                                                  'name' => 'this',
                                                                  'type' => '12441670'
                                                                }
                                                       },
                                            'Return' => '2136881',
                                            'ShortName' => 'maximum',
                                            'Source' => 'DateTimePickerFilter.cpp',
                                            'SourceLine' => '91'
                                          },
                            '12434745' => {
                                            'Class' => '12434253',
                                            'Const' => 1,
                                            'Header' => 'DateTimePickerFilter.h',
                                            'Line' => '173',
                                            'MnglName' => '_ZNK5unity6scopes12experimental20DateTimePickerFilter17has_selected_dateERKNS0_11FilterStateE',
                                            'Param' => {
                                                         '0' => {
                                                                  'name' => 'this',
                                                                  'type' => '12441670'
                                                                },
                                                         '1' => {
                                                                  'name' => 'p1',
                                                                  'type' => '111801'
                                                                }
                                                       },
                                            'Return' => '37625',
                                            'ShortName' => 'has_selected_date',
                                            'Source' => 'DateTimePickerFilter.cpp',
                                            'SourceLine' => '96'
                                          },
                            '12434780' => {
                                            'Class' => '12434253',
                                            'Const' => 1,
                                            'Header' => 'DateTimePickerFilter.h',
                                            'Line' => '182',
                                            'MnglName' => '_ZNK5unity6scopes12experimental20DateTimePickerFilter13selected_dateERKNS0_11FilterStateE',
                                            'Param' => {
                                                         '0' => {
                                                                  'name' => 'this',
                                                                  'type' => '12441670'
                                                                },
                                                         '1' => {
                                                                  'name' => 'p1',
                                                                  'type' => '111801'
                                                                }
                                                       },
                                            'Return' => '2136881',
                                            'ShortName' => 'selected_date',
                                            'Source' => 'DateTimePickerFilter.cpp',
                                            'SourceLine' => '101'
                                          },
                            '12434815' => {
                                            'Class' => '12434253',
                                            'Const' => 1,
                                            'Header' => 'DateTimePickerFilter.h',
                                            'Line' => '189',
                                            'MnglName' => '_ZNK5unity6scopes12experimental20DateTimePickerFilter12update_stateERNS0_11FilterStateERKNSt6chrono10time_pointINS5_3_V212system_clockENS5_8durationIxSt5ratioILx1ELx1000000000EEEEEE',
                                            'Param' => {
                                                         '0' => {
                                                                  'name' => 'this',
                                                                  'type' => '12441670'
                                                                },
                                                         '1' => {
                                                                  'name' => 'p1',
                                                                  'type' => '111813'
                                                                },
                                                         '2' => {
                                                                  'name' => 'p2',
                                                                  'type' => '2401155'
                                                                }
                                                       },
                                            'Return' => '1',
                                            'ShortName' => 'update_state',
                                            'Source' => 'DateTimePickerFilter.cpp',
                                            'SourceLine' => '106'
                                          },
                            '12434851' => {
                                            'Class' => '12434253',
                                            'Header' => 'DateTimePickerFilter.h',
                                            'Line' => '199',
                                            'MnglName' => '_ZN5unity6scopes12experimental20DateTimePickerFilter12update_stateERNS0_11FilterStateERKNSt7__cxx1112basic_stringIcSt11char_traitsIcESaIcEEERKNSt6chrono10time_pointINSD_3_V212system_clockENSD_8durationIxSt5ratioILx1ELx1000000000EEEEEE',
                                            'Param' => {
                                                         '0' => {
                                                                  'name' => 'p1',
                                                                  'type' => '111813'
                                                                },
                                                         '1' => {
                                                                  'name' => 'p2',
                                                                  'type' => '43056'
                                                                },
                                                         '2' => {
                                                                  'name' => 'p3',
                                                                  'type' => '2401155'
                                                                }
                                                       },
                                            'Return' => '1',
                                            'ShortName' => 'update_state',
                                            'Source' => 'DateTimePickerFilter.cpp',
                                            'SourceLine' => '111',
                                            'Static' => 1
                                          },
                            '12434917' => {
                                            'Class' => '12434253',
                                            'Const' => 1,
                                            'Header' => 'DateTimePickerFilter.h',
                                            'Line' => '203',
                                            'MnglName' => '_ZNK5unity6scopes12experimental20DateTimePickerFilter3fwdEv',
                                            'Param' => {
                                                         '0' => {
                                                                  'name' => 'this',
                                                                  'type' => '12441670'
                                                                }
                                                       },
                                            'Private' => 1,
                                            'Return' => '12441621',
                                            'ShortName' => 'fwd',
                                            'Source' => 'DateTimePickerFilter.cpp',
                                            'SourceLine' => '116'
                                          },
                            '12454491' => {
                                            'Class' => '12434253',
                                            'Destructor' => 1,
                                            'Header' => 'DateTimePickerFilter.h',
                                            'Line' => '47',
                                            'MnglName' => '_ZN5unity6scopes12experimental20DateTimePickerFilterD2Ev',
                                            'Param' => {
                                                         '0' => {
                                                                  'name' => 'this',
                                                                  'type' => '12442099'
                                                                }
                                                       },
                                            'ShortName' => 'DateTimePickerFilter',
                                            'Virt' => 1
                                          },
                            '12454492' => {
                                            'Class' => '12434253',
                                            'Destructor' => 1,
                                            'Header' => 'DateTimePickerFilter.h',
                                            'Line' => '47',
                                            'MnglName' => '_ZN5unity6scopes12experimental20DateTimePickerFilterD1Ev',
                                            'Param' => {
                                                         '0' => {
                                                                  'name' => 'this',
                                                                  'type' => '12442099'
                                                                }
                                                       },
                                            'ShortName' => 'DateTimePickerFilter',
                                            'Virt' => 1
                                          },
                            '12454544' => {
                                            'Class' => '12434253',
                                            'Destructor' => 1,
                                            'Header' => 'DateTimePickerFilter.h',
                                            'Line' => '47',
                                            'MnglName' => '_ZN5unity6scopes12experimental20DateTimePickerFilterD0Ev',
                                            'Param' => {
                                                         '0' => {
                                                                  'name' => 'this',
                                                                  'type' => '12442099'
                                                                }
                                                       },
                                            'ShortName' => 'DateTimePickerFilter',
                                            'Virt' => 1
                                          },
                            '12454545' => {
                                            'Class' => '12434253',
                                            'Destructor' => 1,
                                            'Header' => 'DateTimePickerFilter.h',
                                            'Line' => '47',
                                            'MnglName' => '_ZN5unity6scopes12experimental20DateTimePickerFilterD1Ev',
                                            'Param' => {
                                                         '0' => {
                                                                  'name' => 'this',
                                                                  'type' => '12442099'
                                                                }
                                                       },
                                            'ShortName' => 'DateTimePickerFilter',
                                            'Virt' => 1
                                          },
                            '12860131' => {
                                            'Class' => '654625',
                                            'Const' => 1,
                                            'Header' => 'FilterBase.h',
                                            'Line' => '81',
                                            'MnglName' => '_ZNK5unity6scopes10FilterBase2idB5cxx11Ev',
                                            'Private' => 1,
                                            'Return' => '1',
                                            'ShortName' => 'id',
                                            'Source' => 'FilterBase.cpp',
                                            'SourceLine' => '51',
                                            'Static' => 1
                                          },
                            '12860146' => {
                                            'Class' => '654625',
                                            'Const' => 1,
                                            'Header' => 'FilterBase.h',
                                            'Line' => '84',
                                            'MnglName' => '_ZNK5unity6scopes10FilterBase9serializeB5cxx11Ev',
                                            'Private' => 1,
                                            'Return' => '1',
                                            'ShortName' => 'serialize',
                                            'Source' => 'FilterBase.cpp',
                                            'SourceLine' => '34',
                                            'Static' => 1
                                          },
                            '12860644' => {
                                            'Class' => '12860549',
                                            'Const' => 1,
                                            'Header' => 'FilterOption.h',
                                            'Line' => '53',
                                            'MnglName' => '_ZNK5unity6scopes12FilterOption2idB5cxx11Ev',
                                            'Param' => {
                                                         '0' => {
                                                                  'name' => 'this',
                                                                  'type' => '12875205'
                                                                }
                                                       },
                                            'Return' => '6735',
                                            'ShortName' => 'id'
                                          },
                            '12860673' => {
                                            'Class' => '12860549',
                                            'Const' => 1,
                                            'Header' => 'FilterOption.h',
                                            'Line' => '59',
                                            'MnglName' => '_ZNK5unity6scopes12FilterOption5labelB5cxx11Ev',
                                            'Param' => {
                                                         '0' => {
                                                                  'name' => 'this',
                                                                  'type' => '12875205'
                                                                }
                                                       },
                                            'Return' => '6735',
                                            'ShortName' => 'label'
                                          },
                            '12860826' => {
                                            'Class' => '12860805',
                                            'Const' => 1,
                                            'Header' => 'RadioButtonsFilter.h',
                                            'Line' => '97',
                                            'MnglName' => '_ZNK5unity6scopes12experimental18RadioButtonsFilter7optionsB5cxx11Ev',
                                            'Private' => 1,
                                            'Return' => '1',
                                            'ShortName' => 'options',
                                            'Source' => 'RadioButtonsFilter.cpp',
                                            'SourceLine' => '56',
                                            'Static' => 1
                                          },
                            '12860864' => {
                                            'Class' => '12860843',
                                            'Const' => 1,
                                            'Header' => 'RatingFilter.h',
                                            'Line' => '140',
                                            'MnglName' => '_ZNK5unity6scopes12experimental12RatingFilter7optionsB5cxx11Ev',
                                            'Private' => 1,
                                            'Return' => '1',
                                            'ShortName' => 'options',
                                            'Source' => 'RatingFilter.cpp',
                                            'SourceLine' => '66',
                                            'Static' => 1
                                          },
                            '12860923' => {
                                            'Class' => '12860902',
                                            'Const' => 1,
                                            'Header' => 'OptionSelectorFilter.h',
                                            'Line' => '83',
                                            'MnglName' => '_ZNK5unity6scopes20OptionSelectorFilter7optionsB5cxx11Ev',
                                            'Private' => 1,
                                            'Return' => '1',
                                            'ShortName' => 'options',
                                            'Source' => 'OptionSelectorFilter.cpp',
                                            'SourceLine' => '53',
                                            'Static' => 1
                                          },
                            '15455187' => {
                                            'Class' => '15454688',
                                            'Header' => 'OnlineAccountClient.h',
                                            'Line' => '111',
                                            'MnglName' => '_ZN5unity6scopes19OnlineAccountClient27set_service_update_callbackESt8functionIFvRKNS1_13ServiceStatusEEE',
                                            'Param' => {
                                                         '0' => {
                                                                  'name' => 'this',
                                                                  'type' => '15456681'
                                                                },
                                                         '1' => {
                                                                  'name' => 'p1',
                                                                  'type' => '15455020'
                                                                }
                                                       },
                                            'Return' => '1',
                                            'ShortName' => 'set_service_update_callback'
                                          },
                            '15455218' => {
                                            'Class' => '15454688',
                                            'Header' => 'OnlineAccountClient.h',
                                            'Line' => '119',
                                            'MnglName' => '_ZN5unity6scopes19OnlineAccountClient24refresh_service_statusesEv',
                                            'Param' => {
                                                         '0' => {
                                                                  'name' => 'this',
                                                                  'type' => '15456681'
                                                                }
                                                       },
                                            'Return' => '1',
                                            'ShortName' => 'refresh_service_statuses'
                                          },
                            '15455244' => {
                                            'Class' => '15454688',
                                            'Header' => 'OnlineAccountClient.h',
                                            'Line' => '126',
                                            'MnglName' => '_ZN5unity6scopes19OnlineAccountClient20get_service_statusesEv',
                                            'Param' => {
                                                         '0' => {
                                                                  'name' => 'this',
                                                                  'type' => '15456681'
                                                                }
                                                       },
                                            'Return' => '15326680',
                                            'ShortName' => 'get_service_statuses'
                                          },
                            '15455274' => {
                                            'Class' => '15454688',
                                            'Header' => 'OnlineAccountClient.h',
                                            'Line' => '147',
                                            'MnglName' => '_ZN5unity6scopes19OnlineAccountClient27register_account_login_itemERNS0_6ResultERKNS0_11CannedQueryENS1_15PostLoginActionES7_',
                                            'Param' => {
                                                         '0' => {
                                                                  'name' => 'this',
                                                                  'type' => '15456681'
                                                                },
                                                         '1' => {
                                                                  'name' => 'p1',
                                                                  'type' => '10824007'
                                                                },
                                                         '2' => {
                                                                  'name' => 'p2',
                                                                  'type' => '112058'
                                                                },
                                                         '3' => {
                                                                  'name' => 'p3',
                                                                  'type' => '15454960'
                                                                },
                                                         '4' => {
                                                                  'name' => 'p4',
                                                                  'type' => '15454960'
                                                                }
                                                       },
                                            'Return' => '1',
                                            'ShortName' => 'register_account_login_item'
                                          },
                            '15455320' => {
                                            'Class' => '15454688',
                                            'Header' => 'OnlineAccountClient.h',
                                            'Line' => '158',
                                            'MnglName' => '_ZN5unity6scopes19OnlineAccountClient27register_account_login_itemERNS0_13PreviewWidgetENS1_15PostLoginActionES4_',
                                            'Param' => {
                                                         '0' => {
                                                                  'name' => 'this',
                                                                  'type' => '15456681'
                                                                },
                                                         '1' => {
                                                                  'name' => 'p1',
                                                                  'type' => '711203'
                                                                },
                                                         '2' => {
                                                                  'name' => 'p2',
                                                                  'type' => '15454960'
                                                                },
                                                         '3' => {
                                                                  'name' => 'p3',
                                                                  'type' => '15454960'
                                                                }
                                                       },
                                            'Return' => '1',
                                            'ShortName' => 'register_account_login_item'
                                          },
                            '15455439' => {
                                            'Class' => '657044',
                                            'Header' => 'PreviewWidget.h',
                                            'Line' => '104',
                                            'MnglName' => '_ZN5unity6scopes13PreviewWidget19add_attribute_valueERKNSt7__cxx1112basic_stringIcSt11char_traitsIcESaIcEEERKNS0_7VariantE',
                                            'Private' => 1,
                                            'Return' => '1',
                                            'ShortName' => 'add_attribute_value',
                                            'Source' => 'PreviewWidget.cpp',
                                            'SourceLine' => '517',
                                            'Static' => 1
                                          },
                            '15528562' => {
                                            'Artificial' => 1,
                                            'Class' => '15454700',
                                            'Destructor' => 1,
                                            'Header' => 'OnlineAccountClient.h',
                                            'InLine' => 1,
                                            'Line' => '60',
                                            'MnglName' => '_ZN5unity6scopes19OnlineAccountClient13ServiceStatusD2Ev',
                                            'Param' => {
                                                         '0' => {
                                                                  'name' => 'this',
                                                                  'type' => '15461341'
                                                                }
                                                       },
                                            'ShortName' => 'ServiceStatus'
                                          },
                            '15528563' => {
                                            'Artificial' => 1,
                                            'Class' => '15454700',
                                            'Destructor' => 1,
                                            'Header' => 'OnlineAccountClient.h',
                                            'InLine' => 1,
                                            'Line' => '60',
                                            'MnglName' => '_ZN5unity6scopes19OnlineAccountClient13ServiceStatusD0Ev',
                                            'Param' => {
                                                         '0' => {
                                                                  'name' => 'this',
                                                                  'type' => '15461341'
                                                                }
                                                       },
                                            'ShortName' => 'ServiceStatus'
                                          },
                            '15779045' => {
                                            'Class' => '12860902',
                                            'Header' => 'OptionSelectorFilter.h',
                                            'Line' => '59',
                                            'MnglName' => '_ZN5unity6scopes20OptionSelectorFilter6createERKNSt7__cxx1112basic_stringIcSt11char_traitsIcESaIcEEES9_b',
                                            'Param' => {
                                                         '0' => {
                                                                  'name' => 'p1',
                                                                  'type' => '43056'
                                                                },
                                                         '1' => {
                                                                  'name' => 'p2',
                                                                  'type' => '43056'
                                                                },
                                                         '2' => {
                                                                  'name' => 'p3',
                                                                  'type' => '37625'
                                                                }
                                                       },
                                            'Return' => '15778965',
                                            'ShortName' => 'create',
                                            'Source' => 'OptionSelectorFilter.cpp',
                                            'SourceLine' => '33',
                                            'Static' => 1
                                          },
                            '15779081' => {
                                            'Class' => '12860902',
                                            'Const' => 1,
                                            'Header' => 'OptionSelectorFilter.h',
                                            'Line' => '65',
                                            'MnglName' => '_ZNK5unity6scopes20OptionSelectorFilter5labelB5cxx11Ev',
                                            'Param' => {
                                                         '0' => {
                                                                  'name' => 'this',
                                                                  'type' => '12876865'
                                                                }
                                                       },
                                            'Return' => '6735',
                                            'ShortName' => 'label',
                                            'Source' => 'OptionSelectorFilter.cpp',
                                            'SourceLine' => '38'
                                          },
                            '15779111' => {
                                            'Class' => '12860902',
                                            'Const' => 1,
                                            'Header' => 'OptionSelectorFilter.h',
                                            'Line' => '71',
                                            'MnglName' => '_ZNK5unity6scopes20OptionSelectorFilter12multi_selectEv',
                                            'Param' => {
                                                         '0' => {
                                                                  'name' => 'this',
                                                                  'type' => '12876865'
                                                                }
                                                       },
                                            'Return' => '37625',
                                            'ShortName' => 'multi_select',
                                            'Source' => 'OptionSelectorFilter.cpp',
                                            'SourceLine' => '43'
                                          },
                            '15779141' => {
                                            'Class' => '12860902',
                                            'Header' => 'OptionSelectorFilter.h',
                                            'Line' => '77',
                                            'MnglName' => '_ZN5unity6scopes20OptionSelectorFilter10add_optionERKNSt7__cxx1112basic_stringIcSt11char_traitsIcESaIcEEES9_',
                                            'Param' => {
                                                         '0' => {
                                                                  'name' => 'this',
                                                                  'type' => '12875894'
                                                                },
                                                         '1' => {
                                                                  'name' => 'p1',
                                                                  'type' => '43056'
                                                                },
                                                         '2' => {
                                                                  'name' => 'p2',
                                                                  'type' => '43056'
                                                                }
                                                       },
                                            'Return' => '15778316',
                                            'ShortName' => 'add_option',
                                            'Source' => 'OptionSelectorFilter.cpp',
                                            'SourceLine' => '48'
                                          },
                            '15779211' => {
                                            'Class' => '12860902',
                                            'Const' => 1,
                                            'Header' => 'OptionSelectorFilter.h',
                                            'Line' => '90',
                                            'MnglName' => '_ZNK5unity6scopes20OptionSelectorFilter17has_active_optionERKNS0_11FilterStateE',
                                            'Param' => {
                                                         '0' => {
                                                                  'name' => 'this',
                                                                  'type' => '12876865'
                                                                },
                                                         '1' => {
                                                                  'name' => 'p1',
                                                                  'type' => '111801'
                                                                }
                                                       },
                                            'Return' => '37625',
                                            'ShortName' => 'has_active_option',
                                            'Source' => 'OptionSelectorFilter.cpp',
                                            'SourceLine' => '58'
                                          },
                            '15779246' => {
                                            'Class' => '12860902',
                                            'Const' => 1,
                                            'Header' => 'OptionSelectorFilter.h',
                                            'Line' => '96',
                                            'MnglName' => '_ZNK5unity6scopes20OptionSelectorFilter14active_optionsERKNS0_11FilterStateE',
                                            'Param' => {
                                                         '0' => {
                                                                  'name' => 'this',
                                                                  'type' => '12876865'
                                                                },
                                                         '1' => {
                                                                  'name' => 'p1',
                                                                  'type' => '111801'
                                                                }
                                                       },
                                            'Return' => '15739424',
                                            'ShortName' => 'active_options',
                                            'Source' => 'OptionSelectorFilter.cpp',
                                            'SourceLine' => '63'
                                          },
                            '15779281' => {
                                            'Class' => '12860902',
                                            'Const' => 1,
                                            'Header' => 'OptionSelectorFilter.h',
                                            'Line' => '104',
                                            'MnglName' => '_ZNK5unity6scopes20OptionSelectorFilter12update_stateERNS0_11FilterStateESt10shared_ptrIKNS0_12FilterOptionEEb',
                                            'Param' => {
                                                         '0' => {
                                                                  'name' => 'this',
                                                                  'type' => '12876865'
                                                                },
                                                         '1' => {
                                                                  'name' => 'p1',
                                                                  'type' => '111813'
                                                                },
                                                         '2' => {
                                                                  'name' => 'p2',
                                                                  'type' => '15778316'
                                                                },
                                                         '3' => {
                                                                  'name' => 'p3',
                                                                  'type' => '37625'
                                                                }
                                                       },
                                            'Return' => '1',
                                            'ShortName' => 'update_state',
                                            'Source' => 'OptionSelectorFilter.cpp',
                                            'SourceLine' => '68'
                                          },
                            '15779322' => {
                                            'Class' => '12860902',
                                            'Header' => 'OptionSelectorFilter.h',
                                            'Line' => '112',
                                            'MnglName' => '_ZN5unity6scopes20OptionSelectorFilter12update_stateERNS0_11FilterStateERKNSt7__cxx1112basic_stringIcSt11char_traitsIcESaIcEEESB_b',
                                            'Param' => {
                                                         '0' => {
                                                                  'name' => 'p1',
                                                                  'type' => '111813'
                                                                },
                                                         '1' => {
                                                                  'name' => 'p2',
                                                                  'type' => '43056'
                                                                },
                                                         '2' => {
                                                                  'name' => 'p3',
                                                                  'type' => '43056'
                                                                },
                                                         '3' => {
                                                                  'name' => 'p4',
                                                                  'type' => '37625'
                                                                }
                                                       },
                                            'Return' => '1',
                                            'ShortName' => 'update_state',
                                            'Source' => 'OptionSelectorFilter.cpp',
                                            'SourceLine' => '73',
                                            'Static' => 1
                                          },
                            '15779393' => {
                                            'Class' => '12860902',
                                            'Const' => 1,
                                            'Header' => 'OptionSelectorFilter.h',
                                            'Line' => '116',
                                            'MnglName' => '_ZNK5unity6scopes20OptionSelectorFilter3fwdEv',
                                            'Param' => {
                                                         '0' => {
                                                                  'name' => 'this',
                                                                  'type' => '12876865'
                                                                }
                                                       },
                                            'Private' => 1,
                                            'Return' => '15783898',
                                            'ShortName' => 'fwd',
                                            'Source' => 'OptionSelectorFilter.cpp',
                                            'SourceLine' => '78'
                                          },
                            '15809170' => {
                                            'Class' => '12860902',
                                            'Destructor' => 1,
                                            'Header' => 'OptionSelectorFilter.h',
                                            'Line' => '45',
                                            'MnglName' => '_ZN5unity6scopes20OptionSelectorFilterD2Ev',
                                            'Param' => {
                                                         '0' => {
                                                                  'name' => 'this',
                                                                  'type' => '15784252'
                                                                }
                                                       },
                                            'ShortName' => 'OptionSelectorFilter',
                                            'Virt' => 1
                                          },
                            '15809171' => {
                                            'Class' => '12860902',
                                            'Destructor' => 1,
                                            'Header' => 'OptionSelectorFilter.h',
                                            'Line' => '45',
                                            'MnglName' => '_ZN5unity6scopes20OptionSelectorFilterD1Ev',
                                            'Param' => {
                                                         '0' => {
                                                                  'name' => 'this',
                                                                  'type' => '15784252'
                                                                }
                                                       },
                                            'ShortName' => 'OptionSelectorFilter',
                                            'Virt' => 1
                                          },
                            '15809223' => {
                                            'Class' => '12860902',
                                            'Destructor' => 1,
                                            'Header' => 'OptionSelectorFilter.h',
                                            'Line' => '45',
                                            'MnglName' => '_ZN5unity6scopes20OptionSelectorFilterD0Ev',
                                            'Param' => {
                                                         '0' => {
                                                                  'name' => 'this',
                                                                  'type' => '15784252'
                                                                }
                                                       },
                                            'ShortName' => 'OptionSelectorFilter',
                                            'Virt' => 1
                                          },
                            '15809224' => {
                                            'Class' => '12860902',
                                            'Destructor' => 1,
                                            'Header' => 'OptionSelectorFilter.h',
                                            'Line' => '45',
                                            'MnglName' => '_ZN5unity6scopes20OptionSelectorFilterD1Ev',
                                            'Param' => {
                                                         '0' => {
                                                                  'name' => 'this',
                                                                  'type' => '15784252'
                                                                }
                                                       },
                                            'ShortName' => 'OptionSelectorFilter',
                                            'Virt' => 1
                                          },
                            '163807' => {
                                          'Class' => '44332',
                                          'Header' => 'BufferedResultForwarder.h',
                                          'MnglName' => '_ZN5unity6scopes7utility23BufferedResultForwarder4pushENS0_17CategorisedResultE',
                                          'Param' => {
                                                       '0' => {
                                                                'name' => 'this',
                                                                'type' => '167811'
                                                              },
                                                       '1' => {
                                                                'name' => 'result',
                                                                'type' => '44378'
                                                              }
                                                     },
                                          'Return' => '1',
                                          'ShortName' => 'push',
                                          'Source' => 'BufferedResultForwarder.cpp',
                                          'SourceLine' => '146',
                                          'Virt' => 1,
                                          'VirtPos' => '5'
                                        },
                            '163846' => {
                                          'Class' => '44332',
                                          'Const' => 1,
                                          'Header' => 'BufferedResultForwarder.h',
                                          'MnglName' => '_ZNK5unity6scopes7utility23BufferedResultForwarder8is_readyEv',
                                          'Param' => {
                                                       '0' => {
                                                                'name' => 'this',
                                                                'type' => '169809'
                                                              }
                                                     },
                                          'Return' => '37625',
                                          'ShortName' => 'is_ready',
                                          'Source' => 'BufferedResultForwarder.cpp',
                                          'SourceLine' => '136'
                                        },
                            '163876' => {
                                          'Class' => '44332',
                                          'Header' => 'BufferedResultForwarder.h',
                                          'MnglName' => '_ZN5unity6scopes7utility23BufferedResultForwarder9set_readyEv',
                                          'Param' => {
                                                       '0' => {
                                                                'name' => 'this',
                                                                'type' => '167811'
                                                              }
                                                     },
                                          'Protected' => 1,
                                          'Return' => '1',
                                          'ShortName' => 'set_ready',
                                          'Source' => 'BufferedResultForwarder.cpp',
                                          'SourceLine' => '141'
                                        },
                            '163902' => {
                                          'Class' => '44332',
                                          'Const' => 1,
                                          'Header' => 'BufferedResultForwarder.h',
                                          'MnglName' => '_ZNK5unity6scopes7utility23BufferedResultForwarder8upstreamEv',
                                          'Param' => {
                                                       '0' => {
                                                                'name' => 'this',
                                                                'type' => '169809'
                                                              }
                                                     },
                                          'Protected' => 1,
                                          'Return' => '44362',
                                          'ShortName' => 'upstream',
                                          'Source' => 'BufferedResultForwarder.cpp',
                                          'SourceLine' => '151'
                                        },
                            '163932' => {
                                          'Class' => '44332',
                                          'Header' => 'BufferedResultForwarder.h',
                                          'MnglName' => '_ZN5unity6scopes7utility23BufferedResultForwarder8finishedERKNS0_17CompletionDetailsE',
                                          'Param' => {
                                                       '0' => {
                                                                'name' => 'this',
                                                                'type' => '167811'
                                                              },
                                                       '1' => {
                                                                'name' => 'details',
                                                                'type' => '45302'
                                                              }
                                                     },
                                          'Protected' => 1,
                                          'Return' => '1',
                                          'ShortName' => 'finished',
                                          'Source' => 'BufferedResultForwarder.cpp',
                                          'SourceLine' => '156',
                                          'Virt' => 1,
                                          'VirtPos' => '2'
                                        },
                            '16614952' => {
                                            'Class' => '657044',
                                            'Const' => 1,
                                            'Header' => 'PreviewWidget.h',
                                            'Line' => '135',
                                            'MnglName' => '_ZNK5unity6scopes13PreviewWidget2idB5cxx11Ev',
                                            'Private' => 1,
                                            'Return' => '1',
                                            'ShortName' => 'id',
                                            'Source' => 'PreviewWidget.cpp',
                                            'SourceLine' => '532',
                                            'Static' => 1
                                          },
                            '16614967' => {
                                            'Class' => '657044',
                                            'Const' => 1,
                                            'Header' => 'PreviewWidget.h',
                                            'Line' => '141',
                                            'MnglName' => '_ZNK5unity6scopes13PreviewWidget11widget_typeB5cxx11Ev',
                                            'Private' => 1,
                                            'Return' => '1',
                                            'ShortName' => 'widget_type',
                                            'Source' => 'PreviewWidget.cpp',
                                            'SourceLine' => '537',
                                            'Static' => 1
                                          },
                            '16614982' => {
                                            'Class' => '657044',
                                            'Header' => 'PreviewWidget.h',
                                            'Line' => '95',
                                            'MnglName' => '_ZN5unity6scopes13PreviewWidgetaSERKS1_',
                                            'Private' => 1,
                                            'Return' => '1',
                                            'ShortName' => 'operator=',
                                            'Source' => 'PreviewWidget.cpp',
                                            'SourceLine' => '503',
                                            'Static' => 1
                                          },
                            '167385' => {
                                          'Class' => '44378',
                                          'Destructor' => 1,
                                          'Header' => 'CategorisedResult.h',
                                          'Line' => '41',
                                          'MnglName' => '_ZN5unity6scopes17CategorisedResultD2Ev',
                                          'Param' => {
                                                       '0' => {
                                                                'name' => 'this',
                                                                'type' => '46905'
                                                              }
                                                     },
                                          'ShortName' => 'CategorisedResult',
                                          'Virt' => 1
                                        },
                            '167386' => {
                                          'Class' => '44378',
                                          'Destructor' => 1,
                                          'Header' => 'CategorisedResult.h',
                                          'Line' => '41',
                                          'MnglName' => '_ZN5unity6scopes17CategorisedResultD1Ev',
                                          'Param' => {
                                                       '0' => {
                                                                'name' => 'this',
                                                                'type' => '46905'
                                                              }
                                                     },
                                          'ShortName' => 'CategorisedResult',
                                          'Virt' => 1
                                        },
                            '167438' => {
                                          'Class' => '44378',
                                          'Destructor' => 1,
                                          'Header' => 'CategorisedResult.h',
                                          'Line' => '41',
                                          'MnglName' => '_ZN5unity6scopes17CategorisedResultD0Ev',
                                          'Param' => {
                                                       '0' => {
                                                                'name' => 'this',
                                                                'type' => '46905'
                                                              }
                                                     },
                                          'ShortName' => 'CategorisedResult',
                                          'Virt' => 1
                                        },
                            '167439' => {
                                          'Class' => '44378',
                                          'Destructor' => 1,
                                          'Header' => 'CategorisedResult.h',
                                          'Line' => '41',
                                          'MnglName' => '_ZN5unity6scopes17CategorisedResultD1Ev',
                                          'Param' => {
                                                       '0' => {
                                                                'name' => 'this',
                                                                'type' => '46905'
                                                              }
                                                     },
                                          'ShortName' => 'CategorisedResult',
                                          'Virt' => 1
                                        },
                            '168025' => {
                                          'Class' => '44332',
                                          'Destructor' => 1,
                                          'Header' => 'BufferedResultForwarder.h',
                                          'Line' => '43',
                                          'MnglName' => '_ZN5unity6scopes7utility23BufferedResultForwarderD2Ev',
                                          'Param' => {
                                                       '0' => {
                                                                'name' => 'this',
                                                                'type' => '167811'
                                                              }
                                                     },
                                          'ShortName' => 'BufferedResultForwarder',
                                          'Virt' => 1
                                        },
                            '168026' => {
                                          'Class' => '44332',
                                          'Destructor' => 1,
                                          'Header' => 'BufferedResultForwarder.h',
                                          'Line' => '43',
                                          'MnglName' => '_ZN5unity6scopes7utility23BufferedResultForwarderD1Ev',
                                          'Param' => {
                                                       '0' => {
                                                                'name' => 'this',
                                                                'type' => '167811'
                                                              }
                                                     },
                                          'ShortName' => 'BufferedResultForwarder',
                                          'Virt' => 1
                                        },
                            '169292' => {
                                          'Class' => '44332',
                                          'Destructor' => 1,
                                          'Header' => 'BufferedResultForwarder.h',
                                          'Line' => '43',
                                          'MnglName' => '_ZN5unity6scopes7utility23BufferedResultForwarderD0Ev',
                                          'Param' => {
                                                       '0' => {
                                                                'name' => 'this',
                                                                'type' => '167811'
                                                              }
                                                     },
                                          'ShortName' => 'BufferedResultForwarder',
                                          'Virt' => 1
                                        },
                            '169293' => {
                                          'Class' => '44332',
                                          'Destructor' => 1,
                                          'Header' => 'BufferedResultForwarder.h',
                                          'Line' => '43',
                                          'MnglName' => '_ZN5unity6scopes7utility23BufferedResultForwarderD1Ev',
                                          'Param' => {
                                                       '0' => {
                                                                'name' => 'this',
                                                                'type' => '167811'
                                                              }
                                                     },
                                          'ShortName' => 'BufferedResultForwarder',
                                          'Virt' => 1
                                        },
                            '169427' => {
                                          'Class' => '44332',
                                          'Constructor' => 1,
                                          'Header' => 'BufferedResultForwarder.h',
                                          'MnglName' => '_ZN5unity6scopes7utility23BufferedResultForwarderC2ERKSt10shared_ptrINS0_11SearchReplyEERKS3_IS2_E',
                                          'Param' => {
                                                       '0' => {
                                                                'name' => 'this',
                                                                'type' => '167811'
                                                              },
                                                       '1' => {
                                                                'name' => 'upstream',
                                                                'type' => '45835'
                                                              },
                                                       '2' => {
                                                                'name' => 'next_forwarder',
                                                                'type' => '45841'
                                                              }
                                                     },
                                          'ShortName' => 'BufferedResultForwarder',
                                          'Source' => 'BufferedResultForwarder.cpp',
                                          'SourceLine' => '126'
                                        },
                            '169428' => {
                                          'Class' => '44332',
                                          'Constructor' => 1,
                                          'Header' => 'BufferedResultForwarder.h',
                                          'MnglName' => '_ZN5unity6scopes7utility23BufferedResultForwarderC1ERKSt10shared_ptrINS0_11SearchReplyEERKS3_IS2_E',
                                          'Param' => {
                                                       '0' => {
                                                                'name' => 'this',
                                                                'type' => '167811'
                                                              },
                                                       '1' => {
                                                                'name' => 'upstream',
                                                                'type' => '45835'
                                                              },
                                                       '2' => {
                                                                'name' => 'next_forwarder',
                                                                'type' => '45841'
                                                              }
                                                     },
                                          'ShortName' => 'BufferedResultForwarder',
                                          'Source' => 'BufferedResultForwarder.cpp',
                                          'SourceLine' => '126'
                                        },
                            '17557850' => {
                                            'Class' => '12860805',
                                            'Header' => 'RadioButtonsFilter.h',
                                            'Line' => '62',
                                            'MnglName' => '_ZN5unity6scopes12experimental18RadioButtonsFilter6createERKNSt7__cxx1112basic_stringIcSt11char_traitsIcESaIcEEESA_',
                                            'Param' => {
                                                         '0' => {
                                                                  'name' => 'p1',
                                                                  'type' => '43056'
                                                                },
                                                         '1' => {
                                                                  'name' => 'p2',
                                                                  'type' => '43056'
                                                                }
                                                       },
                                            'Return' => '17557770',
                                            'ShortName' => 'create',
                                            'Source' => 'RadioButtonsFilter.cpp',
                                            'SourceLine' => '71',
                                            'Static' => 1
                                          },
                            '17557881' => {
                                            'Class' => '12860805',
                                            'Header' => 'RadioButtonsFilter.h',
                                            'Line' => '71',
                                            'MnglName' => '_ZN5unity6scopes12experimental18RadioButtonsFilter10add_optionERKNSt7__cxx1112basic_stringIcSt11char_traitsIcESaIcEEESA_',
                                            'Param' => {
                                                         '0' => {
                                                                  'name' => 'this',
                                                                  'type' => '12876076'
                                                                },
                                                         '1' => {
                                                                  'name' => 'p1',
                                                                  'type' => '43056'
                                                                },
                                                         '2' => {
                                                                  'name' => 'p2',
                                                                  'type' => '43056'
                                                                }
                                                       },
                                            'Return' => '15778316',
                                            'ShortName' => 'add_option',
                                            'Source' => 'RadioButtonsFilter.cpp',
                                            'SourceLine' => '36'
                                          },
                            '17557921' => {
                                            'Class' => '12860805',
                                            'Const' => 1,
                                            'Header' => 'RadioButtonsFilter.h',
                                            'Line' => '77',
                                            'MnglName' => '_ZNK5unity6scopes12experimental18RadioButtonsFilter5labelB5cxx11Ev',
                                            'Param' => {
                                                         '0' => {
                                                                  'name' => 'this',
                                                                  'type' => '12877047'
                                                                }
                                                       },
                                            'Return' => '6735',
                                            'ShortName' => 'label',
                                            'Source' => 'RadioButtonsFilter.cpp',
                                            'SourceLine' => '41'
                                          },
                            '17557951' => {
                                            'Class' => '12860805',
                                            'Const' => 1,
                                            'Header' => 'RadioButtonsFilter.h',
                                            'Line' => '83',
                                            'MnglName' => '_ZNK5unity6scopes12experimental18RadioButtonsFilter13active_optionERKNS0_11FilterStateE',
                                            'Param' => {
                                                         '0' => {
                                                                  'name' => 'this',
                                                                  'type' => '12877047'
                                                                },
                                                         '1' => {
                                                                  'name' => 'p1',
                                                                  'type' => '111801'
                                                                }
                                                       },
                                            'Return' => '15778316',
                                            'ShortName' => 'active_option',
                                            'Source' => 'RadioButtonsFilter.cpp',
                                            'SourceLine' => '46'
                                          },
                            '17557986' => {
                                            'Class' => '12860805',
                                            'Const' => 1,
                                            'Header' => 'RadioButtonsFilter.h',
                                            'Line' => '90',
                                            'MnglName' => '_ZNK5unity6scopes12experimental18RadioButtonsFilter17has_active_optionERKNS0_11FilterStateE',
                                            'Param' => {
                                                         '0' => {
                                                                  'name' => 'this',
                                                                  'type' => '12877047'
                                                                },
                                                         '1' => {
                                                                  'name' => 'p1',
                                                                  'type' => '111801'
                                                                }
                                                       },
                                            'Return' => '37625',
                                            'ShortName' => 'has_active_option',
                                            'Source' => 'RadioButtonsFilter.cpp',
                                            'SourceLine' => '51'
                                          },
                            '17558051' => {
                                            'Class' => '12860805',
                                            'Const' => 1,
                                            'Header' => 'RadioButtonsFilter.h',
                                            'Line' => '106',
                                            'MnglName' => '_ZNK5unity6scopes12experimental18RadioButtonsFilter12update_stateERNS0_11FilterStateESt10shared_ptrIKNS0_12FilterOptionEEb',
                                            'Param' => {
                                                         '0' => {
                                                                  'name' => 'this',
                                                                  'type' => '12877047'
                                                                },
                                                         '1' => {
                                                                  'name' => 'p1',
                                                                  'type' => '111813'
                                                                },
                                                         '2' => {
                                                                  'name' => 'p2',
                                                                  'type' => '15778316'
                                                                },
                                                         '3' => {
                                                                  'name' => 'p3',
                                                                  'type' => '37625'
                                                                }
                                                       },
                                            'Return' => '1',
                                            'ShortName' => 'update_state',
                                            'Source' => 'RadioButtonsFilter.cpp',
                                            'SourceLine' => '61'
                                          },
                            '17558092' => {
                                            'Class' => '12860805',
                                            'Header' => 'RadioButtonsFilter.h',
                                            'Line' => '114',
                                            'MnglName' => '_ZN5unity6scopes12experimental18RadioButtonsFilter12update_stateERNS0_11FilterStateERKNSt7__cxx1112basic_stringIcSt11char_traitsIcESaIcEEESC_b',
                                            'Param' => {
                                                         '0' => {
                                                                  'name' => 'p1',
                                                                  'type' => '111813'
                                                                },
                                                         '1' => {
                                                                  'name' => 'p2',
                                                                  'type' => '43056'
                                                                },
                                                         '2' => {
                                                                  'name' => 'p3',
                                                                  'type' => '43056'
                                                                },
                                                         '3' => {
                                                                  'name' => 'p4',
                                                                  'type' => '37625'
                                                                }
                                                       },
                                            'Return' => '1',
                                            'ShortName' => 'update_state',
                                            'Source' => 'RadioButtonsFilter.cpp',
                                            'SourceLine' => '66',
                                            'Static' => 1
                                          },
                            '17558164' => {
                                            'Class' => '12860805',
                                            'Const' => 1,
                                            'Header' => 'RadioButtonsFilter.h',
                                            'Line' => '118',
                                            'MnglName' => '_ZNK5unity6scopes12experimental18RadioButtonsFilter3fwdEv',
                                            'Param' => {
                                                         '0' => {
                                                                  'name' => 'this',
                                                                  'type' => '12877047'
                                                                }
                                                       },
                                            'Private' => 1,
                                            'Return' => '17560674',
                                            'ShortName' => 'fwd',
                                            'Source' => 'RadioButtonsFilter.cpp',
                                            'SourceLine' => '76'
                                          },
                            '17566835' => {
                                            'Class' => '12860805',
                                            'Destructor' => 1,
                                            'Header' => 'RadioButtonsFilter.h',
                                            'Line' => '47',
                                            'MnglName' => '_ZN5unity6scopes12experimental18RadioButtonsFilterD2Ev',
                                            'Param' => {
                                                         '0' => {
                                                                  'name' => 'this',
                                                                  'type' => '17561505'
                                                                }
                                                       },
                                            'ShortName' => 'RadioButtonsFilter',
                                            'Virt' => 1
                                          },
                            '17566836' => {
                                            'Class' => '12860805',
                                            'Destructor' => 1,
                                            'Header' => 'RadioButtonsFilter.h',
                                            'Line' => '47',
                                            'MnglName' => '_ZN5unity6scopes12experimental18RadioButtonsFilterD1Ev',
                                            'Param' => {
                                                         '0' => {
                                                                  'name' => 'this',
                                                                  'type' => '17561505'
                                                                }
                                                       },
                                            'ShortName' => 'RadioButtonsFilter',
                                            'Virt' => 1
                                          },
                            '17566888' => {
                                            'Class' => '12860805',
                                            'Destructor' => 1,
                                            'Header' => 'RadioButtonsFilter.h',
                                            'Line' => '47',
                                            'MnglName' => '_ZN5unity6scopes12experimental18RadioButtonsFilterD0Ev',
                                            'Param' => {
                                                         '0' => {
                                                                  'name' => 'this',
                                                                  'type' => '17561505'
                                                                }
                                                       },
                                            'ShortName' => 'RadioButtonsFilter',
                                            'Virt' => 1
                                          },
                            '17566889' => {
                                            'Class' => '12860805',
                                            'Destructor' => 1,
                                            'Header' => 'RadioButtonsFilter.h',
                                            'Line' => '47',
                                            'MnglName' => '_ZN5unity6scopes12experimental18RadioButtonsFilterD1Ev',
                                            'Param' => {
                                                         '0' => {
                                                                  'name' => 'this',
                                                                  'type' => '17561505'
                                                                }
                                                       },
                                            'ShortName' => 'RadioButtonsFilter',
                                            'Virt' => 1
                                          },
                            '17623385' => {
                                            'Class' => '12860843',
                                            'Header' => 'RatingFilter.h',
                                            'Line' => '67',
                                            'MnglName' => '_ZN5unity6scopes12experimental12RatingFilter6createERKNSt7__cxx1112basic_stringIcSt11char_traitsIcESaIcEEESA_',
                                            'Param' => {
                                                         '0' => {
                                                                  'name' => 'p1',
                                                                  'type' => '43056'
                                                                },
                                                         '1' => {
                                                                  'name' => 'p2',
                                                                  'type' => '43056'
                                                                }
                                                       },
                                            'Return' => '17623305',
                                            'ShortName' => 'create',
                                            'Source' => 'RatingFilter.cpp',
                                            'SourceLine' => '41',
                                            'Static' => 1
                                          },
                            '17623416' => {
                                            'Class' => '12860843',
                                            'Header' => 'RatingFilter.h',
                                            'Line' => '83',
                                            'MnglName' => '_ZN5unity6scopes12experimental12RatingFilter6createERKNSt7__cxx1112basic_stringIcSt11char_traitsIcESaIcEEESA_i',
                                            'Param' => {
                                                         '0' => {
                                                                  'name' => 'p1',
                                                                  'type' => '43056'
                                                                },
                                                         '1' => {
                                                                  'name' => 'p2',
                                                                  'type' => '43056'
                                                                },
                                                         '2' => {
                                                                  'name' => 'p3',
                                                                  'type' => '37583'
                                                                }
                                                       },
                                            'Return' => '17623305',
                                            'ShortName' => 'create',
                                            'Source' => 'RatingFilter.cpp',
                                            'SourceLine' => '36',
                                            'Static' => 1
                                          },
                            '17623452' => {
                                            'Class' => '12860843',
                                            'Header' => 'RatingFilter.h',
                                            'Line' => '92',
                                            'MnglName' => '_ZN5unity6scopes12experimental12RatingFilter10add_optionERKNSt7__cxx1112basic_stringIcSt11char_traitsIcESaIcEEESA_',
                                            'Param' => {
                                                         '0' => {
                                                                  'name' => 'this',
                                                                  'type' => '12876167'
                                                                },
                                                         '1' => {
                                                                  'name' => 'p1',
                                                                  'type' => '43056'
                                                                },
                                                         '2' => {
                                                                  'name' => 'p2',
                                                                  'type' => '43056'
                                                                }
                                                       },
                                            'Return' => '15778316',
                                            'ShortName' => 'add_option',
                                            'Source' => 'RatingFilter.cpp',
                                            'SourceLine' => '46'
                                          },
                            '17623492' => {
                                            'Class' => '12860843',
                                            'Header' => 'RatingFilter.h',
                                            'Line' => '101',
                                            'MnglName' => '_ZN5unity6scopes12experimental12RatingFilter11set_on_iconERKNSt7__cxx1112basic_stringIcSt11char_traitsIcESaIcEEE',
                                            'Param' => {
                                                         '0' => {
                                                                  'name' => 'this',
                                                                  'type' => '12876167'
                                                                },
                                                         '1' => {
                                                                  'name' => 'p1',
                                                                  'type' => '43056'
                                                                }
                                                       },
                                            'Return' => '1',
                                            'ShortName' => 'set_on_icon',
                                            'Source' => 'RatingFilter.cpp',
                                            'SourceLine' => '51'
                                          },
                            '17623523' => {
                                            'Class' => '12860843',
                                            'Header' => 'RatingFilter.h',
                                            'Line' => '110',
                                            'MnglName' => '_ZN5unity6scopes12experimental12RatingFilter12set_off_iconERKNSt7__cxx1112basic_stringIcSt11char_traitsIcESaIcEEE',
                                            'Param' => {
                                                         '0' => {
                                                                  'name' => 'this',
                                                                  'type' => '12876167'
                                                                },
                                                         '1' => {
                                                                  'name' => 'p1',
                                                                  'type' => '43056'
                                                                }
                                                       },
                                            'Return' => '1',
                                            'ShortName' => 'set_off_icon',
                                            'Source' => 'RatingFilter.cpp',
                                            'SourceLine' => '56'
                                          },
                            '17623554' => {
                                            'Class' => '12860843',
                                            'Const' => 1,
                                            'Header' => 'RatingFilter.h',
                                            'Line' => '116',
                                            'MnglName' => '_ZNK5unity6scopes12experimental12RatingFilter5labelB5cxx11Ev',
                                            'Param' => {
                                                         '0' => {
                                                                  'name' => 'this',
                                                                  'type' => '12876956'
                                                                }
                                                       },
                                            'Return' => '6735',
                                            'ShortName' => 'label',
                                            'Source' => 'RatingFilter.cpp',
                                            'SourceLine' => '61'
                                          },
                            '17623584' => {
                                            'Class' => '12860843',
                                            'Const' => 1,
                                            'Header' => 'RatingFilter.h',
                                            'Line' => '125',
                                            'MnglName' => '_ZNK5unity6scopes12experimental12RatingFilter7on_iconB5cxx11Ev',
                                            'Param' => {
                                                         '0' => {
                                                                  'name' => 'this',
                                                                  'type' => '12876956'
                                                                }
                                                       },
                                            'Return' => '6735',
                                            'ShortName' => 'on_icon',
                                            'Source' => 'RatingFilter.cpp',
                                            'SourceLine' => '71'
                                          },
                            '17623614' => {
                                            'Class' => '12860843',
                                            'Const' => 1,
                                            'Header' => 'RatingFilter.h',
                                            'Line' => '134',
                                            'MnglName' => '_ZNK5unity6scopes12experimental12RatingFilter8off_iconB5cxx11Ev',
                                            'Param' => {
                                                         '0' => {
                                                                  'name' => 'this',
                                                                  'type' => '12876956'
                                                                }
                                                       },
                                            'Return' => '6735',
                                            'ShortName' => 'off_icon',
                                            'Source' => 'RatingFilter.cpp',
                                            'SourceLine' => '76'
                                          },
                            '17623674' => {
                                            'Class' => '12860843',
                                            'Const' => 1,
                                            'Header' => 'RatingFilter.h',
                                            'Line' => '147',
                                            'MnglName' => '_ZNK5unity6scopes12experimental12RatingFilter17has_active_ratingERKNS0_11FilterStateE',
                                            'Param' => {
                                                         '0' => {
                                                                  'name' => 'this',
                                                                  'type' => '12876956'
                                                                },
                                                         '1' => {
                                                                  'name' => 'p1',
                                                                  'type' => '111801'
                                                                }
                                                       },
                                            'Return' => '37625',
                                            'ShortName' => 'has_active_rating',
                                            'Source' => 'RatingFilter.cpp',
                                            'SourceLine' => '86'
                                          },
                            '17623709' => {
                                            'Class' => '12860843',
                                            'Const' => 1,
                                            'Header' => 'RatingFilter.h',
                                            'Line' => '153',
                                            'MnglName' => '_ZNK5unity6scopes12experimental12RatingFilter13active_ratingERKNS0_11FilterStateE',
                                            'Param' => {
                                                         '0' => {
                                                                  'name' => 'this',
                                                                  'type' => '12876956'
                                                                },
                                                         '1' => {
                                                                  'name' => 'p1',
                                                                  'type' => '111801'
                                                                }
                                                       },
                                            'Return' => '15778316',
                                            'ShortName' => 'active_rating',
                                            'Source' => 'RatingFilter.cpp',
                                            'SourceLine' => '81'
                                          },
                            '17623744' => {
                                            'Class' => '12860843',
                                            'Const' => 1,
                                            'Header' => 'RatingFilter.h',
                                            'Line' => '162',
                                            'MnglName' => '_ZNK5unity6scopes12experimental12RatingFilter12update_stateERNS0_11FilterStateESt10shared_ptrIKNS0_12FilterOptionEEb',
                                            'Param' => {
                                                         '0' => {
                                                                  'name' => 'this',
                                                                  'type' => '12876956'
                                                                },
                                                         '1' => {
                                                                  'name' => 'p1',
                                                                  'type' => '111813'
                                                                },
                                                         '2' => {
                                                                  'name' => 'p2',
                                                                  'type' => '15778316'
                                                                },
                                                         '3' => {
                                                                  'name' => 'p3',
                                                                  'type' => '37625'
                                                                }
                                                       },
                                            'Return' => '1',
                                            'ShortName' => 'update_state',
                                            'Source' => 'RatingFilter.cpp',
                                            'SourceLine' => '91'
                                          },
                            '17623785' => {
                                            'Class' => '12860843',
                                            'Header' => 'RatingFilter.h',
                                            'Line' => '170',
                                            'MnglName' => '_ZN5unity6scopes12experimental12RatingFilter12update_stateERNS0_11FilterStateERKNSt7__cxx1112basic_stringIcSt11char_traitsIcESaIcEEESC_b',
                                            'Param' => {
                                                         '0' => {
                                                                  'name' => 'p1',
                                                                  'type' => '111813'
                                                                },
                                                         '1' => {
                                                                  'name' => 'p2',
                                                                  'type' => '43056'
                                                                },
                                                         '2' => {
                                                                  'name' => 'p3',
                                                                  'type' => '43056'
                                                                },
                                                         '3' => {
                                                                  'name' => 'p4',
                                                                  'type' => '37625'
                                                                }
                                                       },
                                            'Return' => '1',
                                            'ShortName' => 'update_state',
                                            'Source' => 'RatingFilter.cpp',
                                            'SourceLine' => '96',
                                            'Static' => 1
                                          },
                            '17623857' => {
                                            'Class' => '12860843',
                                            'Const' => 1,
                                            'Header' => 'RatingFilter.h',
                                            'Line' => '174',
                                            'MnglName' => '_ZNK5unity6scopes12experimental12RatingFilter3fwdEv',
                                            'Param' => {
                                                         '0' => {
                                                                  'name' => 'this',
                                                                  'type' => '12876956'
                                                                }
                                                       },
                                            'Private' => 1,
                                            'Return' => '17625400',
                                            'ShortName' => 'fwd',
                                            'Source' => 'RatingFilter.cpp',
                                            'SourceLine' => '101'
                                          },
                            '17630528' => {
                                            'Class' => '12860843',
                                            'Destructor' => 1,
                                            'Header' => 'RatingFilter.h',
                                            'Line' => '52',
                                            'MnglName' => '_ZN5unity6scopes12experimental12RatingFilterD2Ev',
                                            'Param' => {
                                                         '0' => {
                                                                  'name' => 'this',
                                                                  'type' => '17626268'
                                                                }
                                                       },
                                            'ShortName' => 'RatingFilter',
                                            'Virt' => 1
                                          },
                            '17630529' => {
                                            'Class' => '12860843',
                                            'Destructor' => 1,
                                            'Header' => 'RatingFilter.h',
                                            'Line' => '52',
                                            'MnglName' => '_ZN5unity6scopes12experimental12RatingFilterD1Ev',
                                            'Param' => {
                                                         '0' => {
                                                                  'name' => 'this',
                                                                  'type' => '17626268'
                                                                }
                                                       },
                                            'ShortName' => 'RatingFilter',
                                            'Virt' => 1
                                          },
                            '17630581' => {
                                            'Class' => '12860843',
                                            'Destructor' => 1,
                                            'Header' => 'RatingFilter.h',
                                            'Line' => '52',
                                            'MnglName' => '_ZN5unity6scopes12experimental12RatingFilterD0Ev',
                                            'Param' => {
                                                         '0' => {
                                                                  'name' => 'this',
                                                                  'type' => '17626268'
                                                                }
                                                       },
                                            'ShortName' => 'RatingFilter',
                                            'Virt' => 1
                                          },
                            '17630582' => {
                                            'Class' => '12860843',
                                            'Destructor' => 1,
                                            'Header' => 'RatingFilter.h',
                                            'Line' => '52',
                                            'MnglName' => '_ZN5unity6scopes12experimental12RatingFilterD1Ev',
                                            'Param' => {
                                                         '0' => {
                                                                  'name' => 'this',
                                                                  'type' => '17626268'
                                                                }
                                                       },
                                            'ShortName' => 'RatingFilter',
                                            'Virt' => 1
                                          },
                            '17699504' => {
                                            'Class' => '12860800',
                                            'Header' => 'RangeInputFilter.h',
                                            'Line' => '58',
                                            'MnglName' => '_ZN5unity6scopes12experimental16RangeInputFilter6createERKNSt7__cxx1112basic_stringIcSt11char_traitsIcESaIcEEESA_SA_SA_',
                                            'Param' => {
                                                         '0' => {
                                                                  'name' => 'p1',
                                                                  'type' => '43056'
                                                                },
                                                         '1' => {
                                                                  'name' => 'p2',
                                                                  'type' => '43056'
                                                                },
                                                         '2' => {
                                                                  'name' => 'p3',
                                                                  'type' => '43056'
                                                                },
                                                         '3' => {
                                                                  'name' => 'p4',
                                                                  'type' => '43056'
                                                                }
                                                       },
                                            'Return' => '17699417',
                                            'ShortName' => 'create',
                                            'Source' => 'RangeInputFilter.cpp',
                                            'SourceLine' => '32',
                                            'Static' => 1
                                          },
                            '17699545' => {
                                            'Class' => '12860800',
                                            'Const' => 1,
                                            'Header' => 'RangeInputFilter.h',
                                            'Line' => '64',
                                            'MnglName' => '_ZNK5unity6scopes12experimental16RangeInputFilter11start_labelB5cxx11Ev',
                                            'Param' => {
                                                         '0' => {
                                                                  'name' => 'this',
                                                                  'type' => '17706117'
                                                                }
                                                       },
                                            'Return' => '6735',
                                            'ShortName' => 'start_label',
                                            'Source' => 'RangeInputFilter.cpp',
                                            'SourceLine' => '42'
                                          },
                            '17699575' => {
                                            'Class' => '12860800',
                                            'Const' => 1,
                                            'Header' => 'RangeInputFilter.h',
                                            'Line' => '70',
                                            'MnglName' => '_ZNK5unity6scopes12experimental16RangeInputFilter9end_labelB5cxx11Ev',
                                            'Param' => {
                                                         '0' => {
                                                                  'name' => 'this',
                                                                  'type' => '17706117'
                                                                }
                                                       },
                                            'Return' => '6735',
                                            'ShortName' => 'end_label',
                                            'Source' => 'RangeInputFilter.cpp',
                                            'SourceLine' => '47'
                                          },
                            '17699605' => {
                                            'Class' => '12860800',
                                            'Const' => 1,
                                            'Header' => 'RangeInputFilter.h',
                                            'Line' => '76',
                                            'MnglName' => '_ZNK5unity6scopes12experimental16RangeInputFilter10unit_labelB5cxx11Ev',
                                            'Param' => {
                                                         '0' => {
                                                                  'name' => 'this',
                                                                  'type' => '17706117'
                                                                }
                                                       },
                                            'Return' => '6735',
                                            'ShortName' => 'unit_label',
                                            'Source' => 'RangeInputFilter.cpp',
                                            'SourceLine' => '52'
                                          },
                            '17699635' => {
                                            'Class' => '12860800',
                                            'Const' => 1,
                                            'Header' => 'RangeInputFilter.h',
                                            'Line' => '84',
                                            'MnglName' => '_ZNK5unity6scopes12experimental16RangeInputFilter15has_start_valueERKNS0_11FilterStateE',
                                            'Param' => {
                                                         '0' => {
                                                                  'name' => 'this',
                                                                  'type' => '17706117'
                                                                },
                                                         '1' => {
                                                                  'name' => 'p1',
                                                                  'type' => '111801'
                                                                }
                                                       },
                                            'Return' => '37625',
                                            'ShortName' => 'has_start_value',
                                            'Source' => 'RangeInputFilter.cpp',
                                            'SourceLine' => '57'
                                          },
                            '17699670' => {
                                            'Class' => '12860800',
                                            'Const' => 1,
                                            'Header' => 'RangeInputFilter.h',
                                            'Line' => '92',
                                            'MnglName' => '_ZNK5unity6scopes12experimental16RangeInputFilter13has_end_valueERKNS0_11FilterStateE',
                                            'Param' => {
                                                         '0' => {
                                                                  'name' => 'this',
                                                                  'type' => '17706117'
                                                                },
                                                         '1' => {
                                                                  'name' => 'p1',
                                                                  'type' => '111801'
                                                                }
                                                       },
                                            'Return' => '37625',
                                            'ShortName' => 'has_end_value',
                                            'Source' => 'RangeInputFilter.cpp',
                                            'SourceLine' => '62'
                                          },
                            '17699705' => {
                                            'Class' => '12860800',
                                            'Const' => 1,
                                            'Header' => 'RangeInputFilter.h',
                                            'Line' => '100',
                                            'MnglName' => '_ZNK5unity6scopes12experimental16RangeInputFilter11start_valueERKNS0_11FilterStateE',
                                            'Param' => {
                                                         '0' => {
                                                                  'name' => 'this',
                                                                  'type' => '17706117'
                                                                },
                                                         '1' => {
                                                                  'name' => 'p1',
                                                                  'type' => '111801'
                                                                }
                                                       },
                                            'Return' => '37611',
                                            'ShortName' => 'start_value',
                                            'Source' => 'RangeInputFilter.cpp',
                                            'SourceLine' => '67'
                                          },
                            '17699740' => {
                                            'Class' => '12860800',
                                            'Const' => 1,
                                            'Header' => 'RangeInputFilter.h',
                                            'Line' => '108',
                                            'MnglName' => '_ZNK5unity6scopes12experimental16RangeInputFilter9end_valueERKNS0_11FilterStateE',
                                            'Param' => {
                                                         '0' => {
                                                                  'name' => 'this',
                                                                  'type' => '17706117'
                                                                },
                                                         '1' => {
                                                                  'name' => 'p1',
                                                                  'type' => '111801'
                                                                }
                                                       },
                                            'Return' => '37611',
                                            'ShortName' => 'end_value',
                                            'Source' => 'RangeInputFilter.cpp',
                                            'SourceLine' => '72'
                                          },
                            '17699775' => {
                                            'Class' => '12860800',
                                            'Const' => 1,
                                            'Header' => 'RangeInputFilter.h',
                                            'Line' => '123',
                                            'MnglName' => '_ZNK5unity6scopes12experimental16RangeInputFilter12update_stateERNS0_11FilterStateERKNS0_7VariantES7_',
                                            'Param' => {
                                                         '0' => {
                                                                  'name' => 'this',
                                                                  'type' => '17706117'
                                                                },
                                                         '1' => {
                                                                  'name' => 'p1',
                                                                  'type' => '111813'
                                                                },
                                                         '2' => {
                                                                  'name' => 'p2',
                                                                  'type' => '111520'
                                                                },
                                                         '3' => {
                                                                  'name' => 'p3',
                                                                  'type' => '111520'
                                                                }
                                                       },
                                            'Return' => '1',
                                            'ShortName' => 'update_state',
                                            'Source' => 'RangeInputFilter.cpp',
                                            'SourceLine' => '77'
                                          },
                            '17699816' => {
                                            'Class' => '12860800',
                                            'Header' => 'RangeInputFilter.h',
                                            'Line' => '139',
                                            'MnglName' => '_ZN5unity6scopes12experimental16RangeInputFilter12update_stateERNS0_11FilterStateERKNSt7__cxx1112basic_stringIcSt11char_traitsIcESaIcEEERKNS0_7VariantESF_',
                                            'Param' => {
                                                         '0' => {
                                                                  'name' => 'p1',
                                                                  'type' => '111813'
                                                                },
                                                         '1' => {
                                                                  'name' => 'p2',
                                                                  'type' => '43056'
                                                                },
                                                         '2' => {
                                                                  'name' => 'p3',
                                                                  'type' => '111520'
                                                                },
                                                         '3' => {
                                                                  'name' => 'p4',
                                                                  'type' => '111520'
                                                                }
                                                       },
                                            'Return' => '1',
                                            'ShortName' => 'update_state',
                                            'Source' => 'RangeInputFilter.cpp',
                                            'SourceLine' => '82',
                                            'Static' => 1
                                          },
                            '17699887' => {
                                            'Class' => '12860800',
                                            'Const' => 1,
                                            'Header' => 'RangeInputFilter.h',
                                            'Line' => '143',
                                            'MnglName' => '_ZNK5unity6scopes12experimental16RangeInputFilter3fwdEv',
                                            'Param' => {
                                                         '0' => {
                                                                  'name' => 'this',
                                                                  'type' => '17706117'
                                                                }
                                                       },
                                            'Private' => 1,
                                            'Return' => '17706070',
                                            'ShortName' => 'fwd',
                                            'Source' => 'RangeInputFilter.cpp',
                                            'SourceLine' => '87'
                                          },
                            '17718034' => {
                                            'Class' => '12860800',
                                            'Destructor' => 1,
                                            'Header' => 'RangeInputFilter.h',
                                            'Line' => '43',
                                            'MnglName' => '_ZN5unity6scopes12experimental16RangeInputFilterD2Ev',
                                            'Param' => {
                                                         '0' => {
                                                                  'name' => 'this',
                                                                  'type' => '17706515'
                                                                }
                                                       },
                                            'ShortName' => 'RangeInputFilter',
                                            'Virt' => 1
                                          },
                            '17718035' => {
                                            'Class' => '12860800',
                                            'Destructor' => 1,
                                            'Header' => 'RangeInputFilter.h',
                                            'Line' => '43',
                                            'MnglName' => '_ZN5unity6scopes12experimental16RangeInputFilterD1Ev',
                                            'Param' => {
                                                         '0' => {
                                                                  'name' => 'this',
                                                                  'type' => '17706515'
                                                                }
                                                       },
                                            'ShortName' => 'RangeInputFilter',
                                            'Virt' => 1
                                          },
                            '17718087' => {
                                            'Class' => '12860800',
                                            'Destructor' => 1,
                                            'Header' => 'RangeInputFilter.h',
                                            'Line' => '43',
                                            'MnglName' => '_ZN5unity6scopes12experimental16RangeInputFilterD0Ev',
                                            'Param' => {
                                                         '0' => {
                                                                  'name' => 'this',
                                                                  'type' => '17706515'
                                                                }
                                                       },
                                            'ShortName' => 'RangeInputFilter',
                                            'Virt' => 1
                                          },
                            '17718088' => {
                                            'Class' => '12860800',
                                            'Destructor' => 1,
                                            'Header' => 'RangeInputFilter.h',
                                            'Line' => '43',
                                            'MnglName' => '_ZN5unity6scopes12experimental16RangeInputFilterD1Ev',
                                            'Param' => {
                                                         '0' => {
                                                                  'name' => 'this',
                                                                  'type' => '17706515'
                                                                }
                                                       },
                                            'ShortName' => 'RangeInputFilter',
                                            'Virt' => 1
                                          },
                            '1958827' => {
                                           'Class' => '656866',
                                           'Header' => 'QueryBase.h',
                                           'Line' => '119',
                                           'MnglName' => '_ZN5unity6scopes9QueryBase6cancelEv',
                                           'Private' => 1,
                                           'Return' => '1',
                                           'ShortName' => 'cancel',
                                           'Source' => 'QueryBase.cpp',
                                           'SourceLine' => '43',
                                           'Static' => 1
                                         },
                            '1962884' => {
                                           'Class' => '656739',
                                           'Const' => 1,
                                           'Header' => 'SearchQueryBase.h',
                                           'Line' => '159',
                                           'MnglName' => '_ZNK5unity6scopes15SearchQueryBase5queryEv',
                                           'Private' => 1,
                                           'Return' => '1',
                                           'ShortName' => 'query',
                                           'Source' => 'SearchQueryBase.cpp',
                                           'SourceLine' => '43',
                                           'Static' => 1
                                         },
                            '1962899' => {
                                           'Class' => '656739',
                                           'Const' => 1,
                                           'Header' => 'SearchQueryBase.h',
                                           'Line' => '181',
                                           'MnglName' => '_ZNK5unity6scopes15SearchQueryBase13department_idB5cxx11Ev',
                                           'Private' => 1,
                                           'Return' => '1',
                                           'ShortName' => 'department_id',
                                           'Source' => 'SearchQueryBase.cpp',
                                           'SourceLine' => '147',
                                           'Static' => 1
                                         },
                            '21668017' => {
                                            'Class' => '655354',
                                            'Const' => 1,
                                            'Header' => 'QueryMetadata.h',
                                            'Line' => '88',
                                            'MnglName' => '_ZNK5unity6scopes13QueryMetadata9serializeB5cxx11Ev',
                                            'Private' => 1,
                                            'Return' => '1',
                                            'ShortName' => 'serialize',
                                            'Source' => 'QueryMetadata.cpp',
                                            'SourceLine' => '78',
                                            'Static' => 1
                                          },
                            '22661961' => {
                                            'Class' => '1219712',
                                            'Const' => 1,
                                            'Header' => 'ScopeBase.h',
                                            'Line' => '355',
                                            'MnglName' => '_ZNK5unity6scopes9ScopeBase12child_scopesEv',
                                            'Private' => 1,
                                            'Return' => '1',
                                            'ShortName' => 'child_scopes',
                                            'Source' => 'ScopeBase.cpp',
                                            'SourceLine' => '117',
                                            'Static' => 1
                                          },
                            '22662067' => {
                                            'Class' => '656739',
                                            'Const' => 1,
                                            'Header' => 'SearchQueryBase.h',
                                            'Line' => '178',
                                            'MnglName' => '_ZNK5unity6scopes15SearchQueryBase3fwdEv',
                                            'Private' => 1,
                                            'Return' => '1',
                                            'ShortName' => 'fwd',
                                            'Source' => 'SearchQueryBase.cpp',
                                            'SourceLine' => '152',
                                            'Static' => 1
                                          },
                            '23294098' => {
                                            'Class' => '656776',
                                            'Header' => 'SearchMetadata.h',
                                            'Line' => '118',
                                            'MnglName' => '_ZN5unity6scopes14SearchMetadata15remove_locationEv',
                                            'Private' => 1,
                                            'Return' => '1',
                                            'ShortName' => 'remove_location',
                                            'Source' => 'SearchMetadata.cpp',
                                            'SourceLine' => '92',
                                            'Static' => 1
                                          },
                            '23294128' => {
                                            'Class' => '656776',
                                            'Header' => 'SearchMetadata.h',
                                            'Line' => '124',
                                            'MnglName' => '_ZN5unity6scopes14SearchMetadata23set_aggregated_keywordsERKSt3setINSt7__cxx1112basic_stringIcSt11char_traitsIcESaIcEEESt4lessIS8_ESaIS8_EE',
                                            'Private' => 1,
                                            'Return' => '1',
                                            'ShortName' => 'set_aggregated_keywords',
                                            'Source' => 'SearchMetadata.cpp',
                                            'SourceLine' => '97',
                                            'Static' => 1
                                          },
                            '23752443' => {
                                            'Class' => '111206',
                                            'Const' => 1,
                                            'Header' => 'Annotation.h',
                                            'Line' => '140',
                                            'MnglName' => '_ZNK5unity6scopes12experimental10Annotation9serializeB5cxx11Ev',
                                            'Private' => 1,
                                            'Return' => '1',
                                            'ShortName' => 'serialize',
                                            'Source' => 'Annotation.cpp',
                                            'SourceLine' => '65',
                                            'Static' => 1
                                          },
                            '2414894' => {
                                           'Class' => '2414723',
                                           'Header' => 'ScopeMetadata.h',
                                           'Line' => '77',
                                           'MnglName' => '_ZN5unity6scopes13ScopeMetadataaSERKS1_',
                                           'Param' => {
                                                        '0' => {
                                                                 'name' => 'this',
                                                                 'type' => '2417018'
                                                               },
                                                        '1' => {
                                                                 'name' => 'p1',
                                                                 'type' => '2417025'
                                                               }
                                                      },
                                           'Return' => '2417039',
                                           'ShortName' => 'operator='
                                         },
                            '2414929' => {
                                           'Class' => '2414723',
                                           'Header' => 'ScopeMetadata.h',
                                           'Line' => '78',
                                           'MnglName' => '_ZN5unity6scopes13ScopeMetadataaSEOS1_',
                                           'Param' => {
                                                        '0' => {
                                                                 'name' => 'this',
                                                                 'type' => '2417018'
                                                               },
                                                        '1' => {
                                                                 'name' => 'p1',
                                                                 'type' => '2417032'
                                                               }
                                                      },
                                           'Return' => '2417039',
                                           'ShortName' => 'operator='
                                         },
                            '2414964' => {
                                           'Class' => '2414723',
                                           'Const' => 1,
                                           'Header' => 'ScopeMetadata.h',
                                           'Line' => '85',
                                           'MnglName' => '_ZNK5unity6scopes13ScopeMetadata8scope_idB5cxx11Ev',
                                           'Param' => {
                                                        '0' => {
                                                                 'name' => 'this',
                                                                 'type' => '2417046'
                                                               }
                                                      },
                                           'Return' => '6735',
                                           'ShortName' => 'scope_id'
                                         },
                            '2414994' => {
                                           'Class' => '2414723',
                                           'Const' => 1,
                                           'Header' => 'ScopeMetadata.h',
                                           'Line' => '91',
                                           'MnglName' => '_ZNK5unity6scopes13ScopeMetadata5proxyEv',
                                           'Param' => {
                                                        '0' => {
                                                                 'name' => 'this',
                                                                 'type' => '2417046'
                                                               }
                                                      },
                                           'Return' => '2415600',
                                           'ShortName' => 'proxy'
                                         },
                            '2415024' => {
                                           'Class' => '2414723',
                                           'Const' => 1,
                                           'Header' => 'ScopeMetadata.h',
                                           'Line' => '97',
                                           'MnglName' => '_ZNK5unity6scopes13ScopeMetadata12display_nameB5cxx11Ev',
                                           'Param' => {
                                                        '0' => {
                                                                 'name' => 'this',
                                                                 'type' => '2417046'
                                                               }
                                                      },
                                           'Return' => '6735',
                                           'ShortName' => 'display_name'
                                         },
                            '2415054' => {
                                           'Class' => '2414723',
                                           'Const' => 1,
                                           'Header' => 'ScopeMetadata.h',
                                           'Line' => '103',
                                           'MnglName' => '_ZNK5unity6scopes13ScopeMetadata11descriptionB5cxx11Ev',
                                           'Param' => {
                                                        '0' => {
                                                                 'name' => 'this',
                                                                 'type' => '2417046'
                                                               }
                                                      },
                                           'Return' => '6735',
                                           'ShortName' => 'description'
                                         },
                            '2415084' => {
                                           'Class' => '2414723',
                                           'Const' => 1,
                                           'Header' => 'ScopeMetadata.h',
                                           'Line' => '109',
                                           'MnglName' => '_ZNK5unity6scopes13ScopeMetadata6authorB5cxx11Ev',
                                           'Param' => {
                                                        '0' => {
                                                                 'name' => 'this',
                                                                 'type' => '2417046'
                                                               }
                                                      },
                                           'Return' => '6735',
                                           'ShortName' => 'author'
                                         },
                            '2415114' => {
                                           'Class' => '2414723',
                                           'Const' => 1,
                                           'Header' => 'ScopeMetadata.h',
                                           'Line' => '115',
                                           'MnglName' => '_ZNK5unity6scopes13ScopeMetadata3artB5cxx11Ev',
                                           'Param' => {
                                                        '0' => {
                                                                 'name' => 'this',
                                                                 'type' => '2417046'
                                                               }
                                                      },
                                           'Return' => '6735',
                                           'ShortName' => 'art'
                                         },
                            '2415144' => {
                                           'Class' => '2414723',
                                           'Const' => 1,
                                           'Header' => 'ScopeMetadata.h',
                                           'Line' => '121',
                                           'MnglName' => '_ZNK5unity6scopes13ScopeMetadata4iconB5cxx11Ev',
                                           'Param' => {
                                                        '0' => {
                                                                 'name' => 'this',
                                                                 'type' => '2417046'
                                                               }
                                                      },
                                           'Return' => '6735',
                                           'ShortName' => 'icon'
                                         },
                            '2415174' => {
                                           'Class' => '2414723',
                                           'Const' => 1,
                                           'Header' => 'ScopeMetadata.h',
                                           'Line' => '127',
                                           'MnglName' => '_ZNK5unity6scopes13ScopeMetadata11search_hintB5cxx11Ev',
                                           'Param' => {
                                                        '0' => {
                                                                 'name' => 'this',
                                                                 'type' => '2417046'
                                                               }
                                                      },
                                           'Return' => '6735',
                                           'ShortName' => 'search_hint'
                                         },
                            '2415204' => {
                                           'Class' => '2414723',
                                           'Const' => 1,
                                           'Header' => 'ScopeMetadata.h',
                                           'Line' => '133',
                                           'MnglName' => '_ZNK5unity6scopes13ScopeMetadata7hot_keyB5cxx11Ev',
                                           'Param' => {
                                                        '0' => {
                                                                 'name' => 'this',
                                                                 'type' => '2417046'
                                                               }
                                                      },
                                           'Return' => '6735',
                                           'ShortName' => 'hot_key'
                                         },
                            '2415234' => {
                                           'Class' => '2414723',
                                           'Const' => 1,
                                           'Header' => 'ScopeMetadata.h',
                                           'Line' => '139',
                                           'MnglName' => '_ZNK5unity6scopes13ScopeMetadata9invisibleEv',
                                           'Param' => {
                                                        '0' => {
                                                                 'name' => 'this',
                                                                 'type' => '2417046'
                                                               }
                                                      },
                                           'Return' => '37625',
                                           'ShortName' => 'invisible'
                                         },
                            '2415264' => {
                                           'Class' => '2414723',
                                           'Const' => 1,
                                           'Header' => 'ScopeMetadata.h',
                                           'Line' => '147',
                                           'MnglName' => '_ZNK5unity6scopes13ScopeMetadata21appearance_attributesB5cxx11Ev',
                                           'Param' => {
                                                        '0' => {
                                                                 'name' => 'this',
                                                                 'type' => '2417046'
                                                               }
                                                      },
                                           'Return' => '107541',
                                           'ShortName' => 'appearance_attributes'
                                         },
                            '2415294' => {
                                           'Class' => '2414723',
                                           'Const' => 1,
                                           'Header' => 'ScopeMetadata.h',
                                           'Line' => '157',
                                           'MnglName' => '_ZNK5unity6scopes13ScopeMetadata15scope_directoryB5cxx11Ev',
                                           'Param' => {
                                                        '0' => {
                                                                 'name' => 'this',
                                                                 'type' => '2417046'
                                                               }
                                                      },
                                           'Return' => '6735',
                                           'ShortName' => 'scope_directory'
                                         },
                            '2415324' => {
                                           'Class' => '2414723',
                                           'Const' => 1,
                                           'Header' => 'ScopeMetadata.h',
                                           'Line' => '163',
                                           'MnglName' => '_ZNK5unity6scopes13ScopeMetadata9serializeB5cxx11Ev',
                                           'Param' => {
                                                        '0' => {
                                                                 'name' => 'this',
                                                                 'type' => '2417046'
                                                               }
                                                      },
                                           'Return' => '107541',
                                           'ShortName' => 'serialize'
                                         },
                            '2415354' => {
                                           'Class' => '2414723',
                                           'Const' => 1,
                                           'Header' => 'ScopeMetadata.h',
                                           'Line' => '169',
                                           'MnglName' => '_ZNK5unity6scopes13ScopeMetadata16results_ttl_typeEv',
                                           'Param' => {
                                                        '0' => {
                                                                 'name' => 'this',
                                                                 'type' => '2417046'
                                                               }
                                                      },
                                           'Return' => '2414735',
                                           'ShortName' => 'results_ttl_type'
                                         },
                            '2415384' => {
                                           'Class' => '2414723',
                                           'Const' => 1,
                                           'Header' => 'ScopeMetadata.h',
                                           'Line' => '180',
                                           'MnglName' => '_ZNK5unity6scopes13ScopeMetadata20settings_definitionsEv',
                                           'Param' => {
                                                        '0' => {
                                                                 'name' => 'this',
                                                                 'type' => '2417046'
                                                               }
                                                      },
                                           'Return' => '107557',
                                           'ShortName' => 'settings_definitions'
                                         },
                            '2415414' => {
                                           'Class' => '2414723',
                                           'Const' => 1,
                                           'Header' => 'ScopeMetadata.h',
                                           'Line' => '186',
                                           'MnglName' => '_ZNK5unity6scopes13ScopeMetadata20location_data_neededEv',
                                           'Param' => {
                                                        '0' => {
                                                                 'name' => 'this',
                                                                 'type' => '2417046'
                                                               }
                                                      },
                                           'Return' => '37625',
                                           'ShortName' => 'location_data_needed'
                                         },
                            '2415444' => {
                                           'Class' => '2414723',
                                           'Const' => 1,
                                           'Header' => 'ScopeMetadata.h',
                                           'Line' => '198',
                                           'MnglName' => '_ZNK5unity6scopes13ScopeMetadata15child_scope_idsB5cxx11Ev',
                                           'Param' => {
                                                        '0' => {
                                                                 'name' => 'this',
                                                                 'type' => '2417046'
                                                               }
                                                      },
                                           'Return' => '494923',
                                           'ShortName' => 'child_scope_ids'
                                         },
                            '2415474' => {
                                           'Class' => '2414723',
                                           'Const' => 1,
                                           'Header' => 'ScopeMetadata.h',
                                           'Line' => '206',
                                           'MnglName' => '_ZNK5unity6scopes13ScopeMetadata7versionEv',
                                           'Param' => {
                                                        '0' => {
                                                                 'name' => 'this',
                                                                 'type' => '2417046'
                                                               }
                                                      },
                                           'Return' => '37583',
                                           'ShortName' => 'version'
                                         },
                            '2415504' => {
                                           'Class' => '2414723',
                                           'Const' => 1,
                                           'Header' => 'ScopeMetadata.h',
                                           'Line' => '216',
                                           'MnglName' => '_ZNK5unity6scopes13ScopeMetadata8keywordsB5cxx11Ev',
                                           'Param' => {
                                                        '0' => {
                                                                 'name' => 'this',
                                                                 'type' => '2417046'
                                                               }
                                                      },
                                           'Return' => '233885',
                                           'ShortName' => 'keywords'
                                         },
                            '2415534' => {
                                           'Class' => '2414723',
                                           'Const' => 1,
                                           'Header' => 'ScopeMetadata.h',
                                           'Line' => '222',
                                           'MnglName' => '_ZNK5unity6scopes13ScopeMetadata13is_aggregatorEv',
                                           'Param' => {
                                                        '0' => {
                                                                 'name' => 'this',
                                                                 'type' => '2417046'
                                                               }
                                                      },
                                           'Return' => '37625',
                                           'ShortName' => 'is_aggregator'
                                         },
                            '24320112' => {
                                            'Class' => '12860881',
                                            'Header' => 'SwitchFilter.h',
                                            'Line' => '57',
                                            'MnglName' => '_ZN5unity6scopes12experimental12SwitchFilter6createERKNSt7__cxx1112basic_stringIcSt11char_traitsIcESaIcEEESA_',
                                            'Param' => {
                                                         '0' => {
                                                                  'name' => 'p1',
                                                                  'type' => '43056'
                                                                },
                                                         '1' => {
                                                                  'name' => 'p2',
                                                                  'type' => '43056'
                                                                }
                                                       },
                                            'Return' => '24320032',
                                            'ShortName' => 'create',
                                            'Source' => 'SwitchFilter.cpp',
                                            'SourceLine' => '31',
                                            'Static' => 1
                                          },
                            '24320143' => {
                                            'Class' => '12860881',
                                            'Const' => 1,
                                            'Header' => 'SwitchFilter.h',
                                            'Line' => '63',
                                            'MnglName' => '_ZNK5unity6scopes12experimental12SwitchFilter5labelB5cxx11Ev',
                                            'Param' => {
                                                         '0' => {
                                                                  'name' => 'this',
                                                                  'type' => '24326325'
                                                                }
                                                       },
                                            'Return' => '6735',
                                            'ShortName' => 'label',
                                            'Source' => 'SwitchFilter.cpp',
                                            'SourceLine' => '36'
                                          },
                            '24320173' => {
                                            'Class' => '12860881',
                                            'Const' => 1,
                                            'Header' => 'SwitchFilter.h',
                                            'Line' => '73',
                                            'MnglName' => '_ZNK5unity6scopes12experimental12SwitchFilter5is_onERKNS0_11FilterStateE',
                                            'Param' => {
                                                         '0' => {
                                                                  'name' => 'this',
                                                                  'type' => '24326325'
                                                                },
                                                         '1' => {
                                                                  'name' => 'p1',
                                                                  'type' => '111801'
                                                                }
                                                       },
                                            'Return' => '37625',
                                            'ShortName' => 'is_on',
                                            'Source' => 'SwitchFilter.cpp',
                                            'SourceLine' => '41'
                                          },
                            '24320208' => {
                                            'Class' => '12860881',
                                            'Const' => 1,
                                            'Header' => 'SwitchFilter.h',
                                            'Line' => '81',
                                            'MnglName' => '_ZNK5unity6scopes12experimental12SwitchFilter12update_stateERNS0_11FilterStateEb',
                                            'Param' => {
                                                         '0' => {
                                                                  'name' => 'this',
                                                                  'type' => '24326325'
                                                                },
                                                         '1' => {
                                                                  'name' => 'p1',
                                                                  'type' => '111813'
                                                                },
                                                         '2' => {
                                                                  'name' => 'p2',
                                                                  'type' => '37625'
                                                                }
                                                       },
                                            'Return' => '1',
                                            'ShortName' => 'update_state',
                                            'Source' => 'SwitchFilter.cpp',
                                            'SourceLine' => '46'
                                          },
                            '24320244' => {
                                            'Class' => '12860881',
                                            'Header' => 'SwitchFilter.h',
                                            'Line' => '89',
                                            'MnglName' => '_ZN5unity6scopes12experimental12SwitchFilter12update_stateERNS0_11FilterStateERKNSt7__cxx1112basic_stringIcSt11char_traitsIcESaIcEEEb',
                                            'Param' => {
                                                         '0' => {
                                                                  'name' => 'p1',
                                                                  'type' => '111813'
                                                                },
                                                         '1' => {
                                                                  'name' => 'p2',
                                                                  'type' => '43056'
                                                                },
                                                         '2' => {
                                                                  'name' => 'p3',
                                                                  'type' => '37625'
                                                                }
                                                       },
                                            'Return' => '1',
                                            'ShortName' => 'update_state',
                                            'Source' => 'SwitchFilter.cpp',
                                            'SourceLine' => '51',
                                            'Static' => 1
                                          },
                            '24320310' => {
                                            'Class' => '12860881',
                                            'Const' => 1,
                                            'Header' => 'SwitchFilter.h',
                                            'Line' => '93',
                                            'MnglName' => '_ZNK5unity6scopes12experimental12SwitchFilter3fwdEv',
                                            'Param' => {
                                                         '0' => {
                                                                  'name' => 'this',
                                                                  'type' => '24326325'
                                                                }
                                                       },
                                            'Private' => 1,
                                            'Return' => '24326283',
                                            'ShortName' => 'fwd',
                                            'Source' => 'SwitchFilter.cpp',
                                            'SourceLine' => '61'
                                          },
                            '24334585' => {
                                            'Class' => '12860881',
                                            'Destructor' => 1,
                                            'Header' => 'SwitchFilter.h',
                                            'Line' => '44',
                                            'MnglName' => '_ZN5unity6scopes12experimental12SwitchFilterD2Ev',
                                            'Param' => {
                                                         '0' => {
                                                                  'name' => 'this',
                                                                  'type' => '24326589'
                                                                }
                                                       },
                                            'ShortName' => 'SwitchFilter',
                                            'Virt' => 1
                                          },
                            '24334586' => {
                                            'Class' => '12860881',
                                            'Destructor' => 1,
                                            'Header' => 'SwitchFilter.h',
                                            'Line' => '44',
                                            'MnglName' => '_ZN5unity6scopes12experimental12SwitchFilterD1Ev',
                                            'Param' => {
                                                         '0' => {
                                                                  'name' => 'this',
                                                                  'type' => '24326589'
                                                                }
                                                       },
                                            'ShortName' => 'SwitchFilter',
                                            'Virt' => 1
                                          },
                            '24334638' => {
                                            'Class' => '12860881',
                                            'Destructor' => 1,
                                            'Header' => 'SwitchFilter.h',
                                            'Line' => '44',
                                            'MnglName' => '_ZN5unity6scopes12experimental12SwitchFilterD0Ev',
                                            'Param' => {
                                                         '0' => {
                                                                  'name' => 'this',
                                                                  'type' => '24326589'
                                                                }
                                                       },
                                            'ShortName' => 'SwitchFilter',
                                            'Virt' => 1
                                          },
                            '24334639' => {
                                            'Class' => '12860881',
                                            'Destructor' => 1,
                                            'Header' => 'SwitchFilter.h',
                                            'Line' => '44',
                                            'MnglName' => '_ZN5unity6scopes12experimental12SwitchFilterD1Ev',
                                            'Param' => {
                                                         '0' => {
                                                                  'name' => 'this',
                                                                  'type' => '24326589'
                                                                }
                                                       },
                                            'ShortName' => 'SwitchFilter',
                                            'Virt' => 1
                                          },
                            '24716139' => {
                                            'Class' => '12860790',
                                            'Header' => 'ValueSliderFilter.h',
                                            'Line' => '82',
                                            'MnglName' => '_ZN5unity6scopes12experimental17ValueSliderFilter6createERKNSt7__cxx1112basic_stringIcSt11char_traitsIcESaIcEEESA_SA_dd',
                                            'Param' => {
                                                         '0' => {
                                                                  'name' => 'p1',
                                                                  'type' => '43056'
                                                                },
                                                         '1' => {
                                                                  'name' => 'p2',
                                                                  'type' => '43056'
                                                                },
                                                         '2' => {
                                                                  'name' => 'p3',
                                                                  'type' => '43056'
                                                                },
                                                         '3' => {
                                                                  'name' => 'p4',
                                                                  'type' => '37611'
                                                                },
                                                         '4' => {
                                                                  'name' => 'p5',
                                                                  'type' => '37611'
                                                                }
                                                       },
                                            'Return' => '24716059',
                                            'ShortName' => 'create',
                                            'Source' => 'ValueSliderFilter.cpp',
                                            'SourceLine' => '36',
                                            'Static' => 1
                                          },
                            '24716185' => {
                                            'Class' => '12860790',
                                            'Header' => 'ValueSliderFilter.h',
                                            'Line' => '89',
                                            'MnglName' => '_ZN5unity6scopes12experimental17ValueSliderFilter15set_slider_typeENS2_10SliderTypeE',
                                            'Param' => {
                                                         '0' => {
                                                                  'name' => 'this',
                                                                  'type' => '12876349'
                                                                },
                                                         '1' => {
                                                                  'name' => 'p1',
                                                                  'type' => '24716009'
                                                                }
                                                       },
                                            'Return' => '1',
                                            'ShortName' => 'set_slider_type',
                                            'Source' => 'ValueSliderFilter.cpp',
                                            'SourceLine' => '41'
                                          },
                            '24716216' => {
                                            'Class' => '12860790',
                                            'Header' => 'ValueSliderFilter.h',
                                            'Line' => '99',
                                            'MnglName' => '_ZN5unity6scopes12experimental17ValueSliderFilter17set_default_valueEd',
                                            'Param' => {
                                                         '0' => {
                                                                  'name' => 'this',
                                                                  'type' => '12876349'
                                                                },
                                                         '1' => {
                                                                  'name' => 'p1',
                                                                  'type' => '37611'
                                                                }
                                                       },
                                            'Return' => '1',
                                            'ShortName' => 'set_default_value',
                                            'Source' => 'ValueSliderFilter.cpp',
                                            'SourceLine' => '46'
                                          },
                            '24716247' => {
                                            'Class' => '12860790',
                                            'Const' => 1,
                                            'Header' => 'ValueSliderFilter.h',
                                            'Line' => '106',
                                            'MnglName' => '_ZNK5unity6scopes12experimental17ValueSliderFilter11slider_typeEv',
                                            'Param' => {
                                                         '0' => {
                                                                  'name' => 'this',
                                                                  'type' => '24722812'
                                                                }
                                                       },
                                            'Return' => '24716009',
                                            'ShortName' => 'slider_type',
                                            'Source' => 'ValueSliderFilter.cpp',
                                            'SourceLine' => '51'
                                          },
                            '24716277' => {
                                            'Class' => '12860790',
                                            'Const' => 1,
                                            'Header' => 'ValueSliderFilter.h',
                                            'Line' => '113',
                                            'MnglName' => '_ZNK5unity6scopes12experimental17ValueSliderFilter13default_valueEv',
                                            'Param' => {
                                                         '0' => {
                                                                  'name' => 'this',
                                                                  'type' => '24722812'
                                                                }
                                                       },
                                            'Return' => '37611',
                                            'ShortName' => 'default_value',
                                            'Source' => 'ValueSliderFilter.cpp',
                                            'SourceLine' => '56'
                                          },
                            '24716307' => {
                                            'Class' => '12860790',
                                            'Const' => 1,
                                            'Header' => 'ValueSliderFilter.h',
                                            'Line' => '120',
                                            'MnglName' => '_ZNK5unity6scopes12experimental17ValueSliderFilter3minEv',
                                            'Param' => {
                                                         '0' => {
                                                                  'name' => 'this',
                                                                  'type' => '24722812'
                                                                }
                                                       },
                                            'Return' => '37611',
                                            'ShortName' => 'min',
                                            'Source' => 'ValueSliderFilter.cpp',
                                            'SourceLine' => '61'
                                          },
                            '24716337' => {
                                            'Class' => '12860790',
                                            'Const' => 1,
                                            'Header' => 'ValueSliderFilter.h',
                                            'Line' => '127',
                                            'MnglName' => '_ZNK5unity6scopes12experimental17ValueSliderFilter3maxEv',
                                            'Param' => {
                                                         '0' => {
                                                                  'name' => 'this',
                                                                  'type' => '24722812'
                                                                }
                                                       },
                                            'Return' => '37611',
                                            'ShortName' => 'max',
                                            'Source' => 'ValueSliderFilter.cpp',
                                            'SourceLine' => '66'
                                          },
                            '24716367' => {
                                            'Class' => '12860790',
                                            'Const' => 1,
                                            'Header' => 'ValueSliderFilter.h',
                                            'Line' => '134',
                                            'MnglName' => '_ZNK5unity6scopes12experimental17ValueSliderFilter5labelB5cxx11Ev',
                                            'Param' => {
                                                         '0' => {
                                                                  'name' => 'this',
                                                                  'type' => '24722812'
                                                                }
                                                       },
                                            'Return' => '6735',
                                            'ShortName' => 'label',
                                            'Source' => 'ValueSliderFilter.cpp',
                                            'SourceLine' => '71'
                                          },
                            '24716397' => {
                                            'Class' => '12860790',
                                            'Const' => 1,
                                            'Header' => 'ValueSliderFilter.h',
                                            'Line' => '141',
                                            'MnglName' => '_ZNK5unity6scopes12experimental17ValueSliderFilter20value_label_templateB5cxx11Ev',
                                            'Param' => {
                                                         '0' => {
                                                                  'name' => 'this',
                                                                  'type' => '24722812'
                                                                }
                                                       },
                                            'Return' => '6735',
                                            'ShortName' => 'value_label_template',
                                            'Source' => 'ValueSliderFilter.cpp',
                                            'SourceLine' => '76'
                                          },
                            '24716427' => {
                                            'Class' => '12860790',
                                            'Const' => 1,
                                            'Header' => 'ValueSliderFilter.h',
                                            'Line' => '148',
                                            'MnglName' => '_ZNK5unity6scopes12experimental17ValueSliderFilter9has_valueERKNS0_11FilterStateE',
                                            'Param' => {
                                                         '0' => {
                                                                  'name' => 'this',
                                                                  'type' => '24722812'
                                                                },
                                                         '1' => {
                                                                  'name' => 'p1',
                                                                  'type' => '111801'
                                                                }
                                                       },
                                            'Return' => '37625',
                                            'ShortName' => 'has_value',
                                            'Source' => 'ValueSliderFilter.cpp',
                                            'SourceLine' => '81'
                                          },
                            '24716462' => {
                                            'Class' => '12860790',
                                            'Const' => 1,
                                            'Header' => 'ValueSliderFilter.h',
                                            'Line' => '156',
                                            'MnglName' => '_ZNK5unity6scopes12experimental17ValueSliderFilter5valueERKNS0_11FilterStateE',
                                            'Param' => {
                                                         '0' => {
                                                                  'name' => 'this',
                                                                  'type' => '24722812'
                                                                },
                                                         '1' => {
                                                                  'name' => 'p1',
                                                                  'type' => '111801'
                                                                }
                                                       },
                                            'Return' => '37611',
                                            'ShortName' => 'value',
                                            'Source' => 'ValueSliderFilter.cpp',
                                            'SourceLine' => '86'
                                          },
                            '24716497' => {
                                            'Class' => '12860790',
                                            'Const' => 1,
                                            'Header' => 'ValueSliderFilter.h',
                                            'Line' => '165',
                                            'MnglName' => '_ZNK5unity6scopes12experimental17ValueSliderFilter12update_stateERNS0_11FilterStateEd',
                                            'Param' => {
                                                         '0' => {
                                                                  'name' => 'this',
                                                                  'type' => '24722812'
                                                                },
                                                         '1' => {
                                                                  'name' => 'p1',
                                                                  'type' => '111813'
                                                                },
                                                         '2' => {
                                                                  'name' => 'p2',
                                                                  'type' => '37611'
                                                                }
                                                       },
                                            'Return' => '1',
                                            'ShortName' => 'update_state',
                                            'Source' => 'ValueSliderFilter.cpp',
                                            'SourceLine' => '91'
                                          },
                            '24716533' => {
                                            'Class' => '12860790',
                                            'Header' => 'ValueSliderFilter.h',
                                            'Line' => '173',
                                            'MnglName' => '_ZN5unity6scopes12experimental17ValueSliderFilter12update_stateERNS0_11FilterStateERKNSt7__cxx1112basic_stringIcSt11char_traitsIcESaIcEEEd',
                                            'Param' => {
                                                         '0' => {
                                                                  'name' => 'p1',
                                                                  'type' => '111813'
                                                                },
                                                         '1' => {
                                                                  'name' => 'p2',
                                                                  'type' => '43056'
                                                                },
                                                         '2' => {
                                                                  'name' => 'p3',
                                                                  'type' => '37611'
                                                                }
                                                       },
                                            'Return' => '1',
                                            'ShortName' => 'update_state',
                                            'Source' => 'ValueSliderFilter.cpp',
                                            'SourceLine' => '96',
                                            'Static' => 1
                                          },
                            '24716599' => {
                                            'Class' => '12860790',
                                            'Const' => 1,
                                            'Header' => 'ValueSliderFilter.h',
                                            'Line' => '177',
                                            'MnglName' => '_ZNK5unity6scopes12experimental17ValueSliderFilter3fwdEv',
                                            'Param' => {
                                                         '0' => {
                                                                  'name' => 'this',
                                                                  'type' => '24722812'
                                                                }
                                                       },
                                            'Private' => 1,
                                            'Return' => '24722765',
                                            'ShortName' => 'fwd',
                                            'Source' => 'ValueSliderFilter.cpp',
                                            'SourceLine' => '101'
                                          },
                            '24732435' => {
                                            'Class' => '12860790',
                                            'Destructor' => 1,
                                            'Header' => 'ValueSliderFilter.h',
                                            'Line' => '47',
                                            'MnglName' => '_ZN5unity6scopes12experimental17ValueSliderFilterD2Ev',
                                            'Param' => {
                                                         '0' => {
                                                                  'name' => 'this',
                                                                  'type' => '24723600'
                                                                }
                                                       },
                                            'ShortName' => 'ValueSliderFilter',
                                            'Virt' => 1
                                          },
                            '24732436' => {
                                            'Class' => '12860790',
                                            'Destructor' => 1,
                                            'Header' => 'ValueSliderFilter.h',
                                            'Line' => '47',
                                            'MnglName' => '_ZN5unity6scopes12experimental17ValueSliderFilterD1Ev',
                                            'Param' => {
                                                         '0' => {
                                                                  'name' => 'this',
                                                                  'type' => '24723600'
                                                                }
                                                       },
                                            'ShortName' => 'ValueSliderFilter',
                                            'Virt' => 1
                                          },
                            '24732488' => {
                                            'Class' => '12860790',
                                            'Destructor' => 1,
                                            'Header' => 'ValueSliderFilter.h',
                                            'Line' => '47',
                                            'MnglName' => '_ZN5unity6scopes12experimental17ValueSliderFilterD0Ev',
                                            'Param' => {
                                                         '0' => {
                                                                  'name' => 'this',
                                                                  'type' => '24723600'
                                                                }
                                                       },
                                            'ShortName' => 'ValueSliderFilter',
                                            'Virt' => 1
                                          },
                            '24732489' => {
                                            'Class' => '12860790',
                                            'Destructor' => 1,
                                            'Header' => 'ValueSliderFilter.h',
                                            'Line' => '47',
                                            'MnglName' => '_ZN5unity6scopes12experimental17ValueSliderFilterD1Ev',
                                            'Param' => {
                                                         '0' => {
                                                                  'name' => 'this',
                                                                  'type' => '24723600'
                                                                }
                                                       },
                                            'ShortName' => 'ValueSliderFilter',
                                            'Virt' => 1
                                          },
                            '24916428' => {
                                            'Class' => '24916335',
                                            'Header' => 'Statistics.h',
                                            'Line' => '125',
                                            'MnglName' => '_ZN5unity6scopes7testing19AndersonDarlingTest13for_normalityERKNS1_6SampleE',
                                            'Param' => {
                                                         '0' => {
                                                                  'name' => 'this',
                                                                  'type' => '24918151'
                                                                },
                                                         '1' => {
                                                                  'name' => 'p1',
                                                                  'type' => '24918157'
                                                                }
                                                       },
                                            'Return' => '24916347',
                                            'ShortName' => 'for_normality'
                                          },
                            '24916689' => {
                                            'Class' => '24916470',
                                            'Const' => 1,
                                            'Header' => 'Statistics.h',
                                            'Line' => '55',
                                            'MnglName' => '_ZNK5unity6scopes7testing6Sample8get_sizeEv',
                                            'Param' => {
                                                         '0' => {
                                                                  'name' => 'this',
                                                                  'type' => '25001803'
                                                                }
                                                       },
                                            'PureVirt' => 1,
                                            'Return' => '24916499',
                                            'ShortName' => 'get_size',
                                            'VirtPos' => '2'
                                          },
                            '24916728' => {
                                            'Class' => '24916470',
                                            'Const' => 1,
                                            'Header' => 'Statistics.h',
                                            'Line' => '58',
                                            'MnglName' => '_ZNK5unity6scopes7testing6Sample8get_meanEv',
                                            'Param' => {
                                                         '0' => {
                                                                  'name' => 'this',
                                                                  'type' => '25001803'
                                                                }
                                                       },
                                            'PureVirt' => 1,
                                            'Return' => '24916487',
                                            'ShortName' => 'get_mean',
                                            'VirtPos' => '3'
                                          },
                            '24916767' => {
                                            'Class' => '24916470',
                                            'Const' => 1,
                                            'Header' => 'Statistics.h',
                                            'Line' => '61',
                                            'MnglName' => '_ZNK5unity6scopes7testing6Sample12get_varianceEv',
                                            'Param' => {
                                                         '0' => {
                                                                  'name' => 'this',
                                                                  'type' => '25001803'
                                                                }
                                                       },
                                            'PureVirt' => 1,
                                            'Return' => '24916487',
                                            'ShortName' => 'get_variance',
                                            'VirtPos' => '4'
                                          },
                            '24916806' => {
                                            'Class' => '24916470',
                                            'Const' => 1,
                                            'Header' => 'Statistics.h',
                                            'Line' => '64',
                                            'MnglName' => '_ZNK5unity6scopes7testing6Sample9enumerateERKSt8functionIFvdEE',
                                            'Param' => {
                                                         '0' => {
                                                                  'name' => 'this',
                                                                  'type' => '25001803'
                                                                },
                                                         '1' => {
                                                                  'name' => 'p1',
                                                                  'type' => '25001776'
                                                                }
                                                       },
                                            'PureVirt' => 1,
                                            'Return' => '1',
                                            'ShortName' => 'enumerate',
                                            'VirtPos' => '5'
                                          },
                            '24917076' => {
                                            'Class' => '24916948',
                                            'Header' => 'Statistics.h',
                                            'Line' => '186',
                                            'MnglName' => '_ZN5unity6scopes7testing13StudentsTTest10one_sampleERKNS1_6SampleEdd',
                                            'Param' => {
                                                         '0' => {
                                                                  'name' => 'this',
                                                                  'type' => '24918253'
                                                                },
                                                         '1' => {
                                                                  'name' => 'p1',
                                                                  'type' => '24918157'
                                                                },
                                                         '2' => {
                                                                  'name' => 'p2',
                                                                  'type' => '24916487'
                                                                },
                                                         '3' => {
                                                                  'name' => 'p3',
                                                                  'type' => '24916487'
                                                                }
                                                       },
                                            'Return' => '24916960',
                                            'ShortName' => 'one_sample'
                                          },
                            '24917120' => {
                                            'Class' => '24916948',
                                            'Header' => 'Statistics.h',
                                            'Line' => '197',
                                            'MnglName' => '_ZN5unity6scopes7testing13StudentsTTest23two_independent_samplesERKNS1_6SampleES5_',
                                            'Param' => {
                                                         '0' => {
                                                                  'name' => 'this',
                                                                  'type' => '24918253'
                                                                },
                                                         '1' => {
                                                                  'name' => 'p1',
                                                                  'type' => '24918157'
                                                                },
                                                         '2' => {
                                                                  'name' => 'p2',
                                                                  'type' => '24918157'
                                                                }
                                                       },
                                            'Return' => '24916960',
                                            'ShortName' => 'two_independent_samples'
                                          },
                            '24917431' => {
                                            'Class' => '24917202',
                                            'Const' => 1,
                                            'Header' => 'Benchmark.h',
                                            'MnglName' => '_ZNK5unity6scopes7testing9Benchmark6Result6Timing8get_sizeEv',
                                            'Param' => {
                                                         '0' => {
                                                                  'name' => 'this',
                                                                  'type' => '25073471'
                                                                }
                                                       },
                                            'Return' => '24916499',
                                            'ShortName' => 'get_size',
                                            'Source' => 'Benchmark.cpp',
                                            'SourceLine' => '149',
                                            'Virt' => 1,
                                            'VirtPos' => '2'
                                          },
                            '24917469' => {
                                            'Class' => '24917202',
                                            'Const' => 1,
                                            'Header' => 'Benchmark.h',
                                            'MnglName' => '_ZNK5unity6scopes7testing9Benchmark6Result6Timing8get_meanEv',
                                            'Param' => {
                                                         '0' => {
                                                                  'name' => 'this',
                                                                  'type' => '25073471'
                                                                }
                                                       },
                                            'Return' => '24916487',
                                            'ShortName' => 'get_mean',
                                            'Source' => 'Benchmark.cpp',
                                            'SourceLine' => '154',
                                            'Virt' => 1,
                                            'VirtPos' => '3'
                                          },
                            '24917507' => {
                                            'Class' => '24917202',
                                            'Const' => 1,
                                            'Header' => 'Benchmark.h',
                                            'MnglName' => '_ZNK5unity6scopes7testing9Benchmark6Result6Timing12get_varianceEv',
                                            'Param' => {
                                                         '0' => {
                                                                  'name' => 'this',
                                                                  'type' => '25073471'
                                                                }
                                                       },
                                            'Return' => '24916487',
                                            'ShortName' => 'get_variance',
                                            'Source' => 'Benchmark.cpp',
                                            'SourceLine' => '159',
                                            'Virt' => 1,
                                            'VirtPos' => '4'
                                          },
                            '24917545' => {
                                            'Class' => '24917202',
                                            'Const' => 1,
                                            'Header' => 'Benchmark.h',
                                            'MnglName' => '_ZNK5unity6scopes7testing9Benchmark6Result6Timing9enumerateERKSt8functionIFvdEE',
                                            'Param' => {
                                                         '0' => {
                                                                  'name' => 'this',
                                                                  'type' => '25073471'
                                                                },
                                                         '1' => {
                                                                  'name' => 'enumerator',
                                                                  'type' => '25001776'
                                                                }
                                                       },
                                            'Return' => '1',
                                            'ShortName' => 'enumerate',
                                            'Source' => 'Benchmark.cpp',
                                            'SourceLine' => '164',
                                            'Virt' => 1,
                                            'VirtPos' => '5'
                                          },
                            '24917584' => {
                                            'Class' => '24917202',
                                            'Const' => 1,
                                            'Header' => 'Benchmark.h',
                                            'MnglName' => '_ZNK5unity6scopes7testing9Benchmark6Result6Timing38is_significantly_faster_than_referenceERKS4_d',
                                            'Param' => {
                                                         '0' => {
                                                                  'name' => 'this',
                                                                  'type' => '25073471'
                                                                },
                                                         '1' => {
                                                                  'name' => 'reference',
                                                                  'type' => '25001756'
                                                                },
                                                         '2' => {
                                                                  'name' => 'alpha',
                                                                  'type' => '37611'
                                                                }
                                                       },
                                            'Return' => '37625',
                                            'ShortName' => 'is_significantly_faster_than_reference',
                                            'Source' => 'Benchmark.cpp',
                                            'SourceLine' => '170'
                                          },
                            '24917623' => {
                                            'Class' => '24917202',
                                            'Const' => 1,
                                            'Header' => 'Benchmark.h',
                                            'MnglName' => '_ZNK5unity6scopes7testing9Benchmark6Result6Timing38is_significantly_faster_than_referenceEddd',
                                            'Param' => {
                                                         '0' => {
                                                                  'name' => 'this',
                                                                  'type' => '25073471'
                                                                },
                                                         '1' => {
                                                                  'name' => 'mean',
                                                                  'type' => '37611'
                                                                },
                                                         '2' => {
                                                                  'name' => 'std_dev',
                                                                  'type' => '37611'
                                                                },
                                                         '3' => {
                                                                  'name' => 'alpha',
                                                                  'type' => '37611'
                                                                }
                                                       },
                                            'Return' => '37625',
                                            'ShortName' => 'is_significantly_faster_than_reference',
                                            'Source' => 'Benchmark.cpp',
                                            'SourceLine' => '197'
                                          },
                            '24917667' => {
                                            'Class' => '24917202',
                                            'Const' => 1,
                                            'Header' => 'Benchmark.h',
                                            'MnglName' => '_ZNK5unity6scopes7testing9Benchmark6Result6Timing38is_significantly_slower_than_referenceERKS4_d',
                                            'Param' => {
                                                         '0' => {
                                                                  'name' => 'this',
                                                                  'type' => '25073471'
                                                                },
                                                         '1' => {
                                                                  'name' => 'reference',
                                                                  'type' => '25001756'
                                                                },
                                                         '2' => {
                                                                  'name' => 'alpha',
                                                                  'type' => '37611'
                                                                }
                                                       },
                                            'Return' => '37625',
                                            'ShortName' => 'is_significantly_slower_than_reference',
                                            'Source' => 'Benchmark.cpp',
                                            'SourceLine' => '216'
                                          },
                            '24917706' => {
                                            'Class' => '24917202',
                                            'Const' => 1,
                                            'Header' => 'Benchmark.h',
                                            'MnglName' => '_ZNK5unity6scopes7testing9Benchmark6Result6Timing38is_significantly_slower_than_referenceEddd',
                                            'Param' => {
                                                         '0' => {
                                                                  'name' => 'this',
                                                                  'type' => '25073471'
                                                                },
                                                         '1' => {
                                                                  'name' => 'mean',
                                                                  'type' => '37611'
                                                                },
                                                         '2' => {
                                                                  'name' => 'std_dev',
                                                                  'type' => '37611'
                                                                },
                                                         '3' => {
                                                                  'name' => 'alpha',
                                                                  'type' => '37611'
                                                                }
                                                       },
                                            'Return' => '37625',
                                            'ShortName' => 'is_significantly_slower_than_reference',
                                            'Source' => 'Benchmark.cpp',
                                            'SourceLine' => '243'
                                          },
                            '24917834' => {
                                            'Class' => '24917176',
                                            'Header' => 'Benchmark.h',
                                            'Line' => '150',
                                            'MnglName' => '_ZN5unity6scopes7testing9Benchmark6Result9load_fromERSi',
                                            'Param' => {
                                                         '0' => {
                                                                  'name' => 'this',
                                                                  'type' => '24999136'
                                                                },
                                                         '1' => {
                                                                  'name' => 'in',
                                                                  'type' => '13302746'
                                                                }
                                                       },
                                            'Return' => '1',
                                            'ShortName' => 'load_from'
                                          },
                            '24917864' => {
                                            'Class' => '24917176',
                                            'Header' => 'Benchmark.h',
                                            'Line' => '157',
                                            'MnglName' => '_ZN5unity6scopes7testing9Benchmark6Result7save_toERSo',
                                            'Param' => {
                                                         '0' => {
                                                                  'name' => 'this',
                                                                  'type' => '24999136'
                                                                },
                                                         '1' => {
                                                                  'name' => 'out',
                                                                  'type' => '24918953'
                                                                }
                                                       },
                                            'Return' => '1',
                                            'ShortName' => 'save_to'
                                          },
                            '24917894' => {
                                            'Class' => '24917176',
                                            'Header' => 'Benchmark.h',
                                            'Line' => '164',
                                            'MnglName' => '_ZN5unity6scopes7testing9Benchmark6Result13load_from_xmlERSi',
                                            'Param' => {
                                                         '0' => {
                                                                  'name' => 'this',
                                                                  'type' => '24999136'
                                                                },
                                                         '1' => {
                                                                  'name' => 'in',
                                                                  'type' => '13302746'
                                                                }
                                                       },
                                            'Return' => '1',
                                            'ShortName' => 'load_from_xml'
                                          },
                            '24917924' => {
                                            'Class' => '24917176',
                                            'Header' => 'Benchmark.h',
                                            'Line' => '171',
                                            'MnglName' => '_ZN5unity6scopes7testing9Benchmark6Result11save_to_xmlERSo',
                                            'Param' => {
                                                         '0' => {
                                                                  'name' => 'this',
                                                                  'type' => '24999136'
                                                                },
                                                         '1' => {
                                                                  'name' => 'out',
                                                                  'type' => '24918953'
                                                                }
                                                       },
                                            'Return' => '1',
                                            'ShortName' => 'save_to_xml'
                                          },
                            '25078378' => {
                                            'Artificial' => 1,
                                            'Class' => '24917202',
                                            'Destructor' => 1,
                                            'Header' => 'Benchmark.h',
                                            'InLine' => 1,
                                            'Line' => '59',
                                            'MnglName' => '_ZN5unity6scopes7testing9Benchmark6Result6TimingD2Ev',
                                            'Param' => {
                                                         '0' => {
                                                                  'name' => 'this',
                                                                  'type' => '25078373'
                                                                }
                                                       },
                                            'ShortName' => 'Timing',
                                            'Virt' => 1
                                          },
                            '25078379' => {
                                            'Artificial' => 1,
                                            'Class' => '24917202',
                                            'Destructor' => 1,
                                            'Header' => 'Benchmark.h',
                                            'InLine' => 1,
                                            'Line' => '59',
                                            'MnglName' => '_ZN5unity6scopes7testing9Benchmark6Result6TimingD1Ev',
                                            'Param' => {
                                                         '0' => {
                                                                  'name' => 'this',
                                                                  'type' => '25078373'
                                                                }
                                                       },
                                            'ShortName' => 'Timing',
                                            'Virt' => 1
                                          },
                            '25100830' => {
                                            'Artificial' => 1,
                                            'Class' => '24917202',
                                            'Destructor' => 1,
                                            'Header' => 'Benchmark.h',
                                            'InLine' => 1,
                                            'Line' => '59',
                                            'MnglName' => '_ZN5unity6scopes7testing9Benchmark6Result6TimingD0Ev',
                                            'Param' => {
                                                         '0' => {
                                                                  'name' => 'this',
                                                                  'type' => '25078373'
                                                                }
                                                       },
                                            'ShortName' => 'Timing',
                                            'Virt' => 1
                                          },
                            '25100831' => {
                                            'Artificial' => 1,
                                            'Class' => '24917202',
                                            'Destructor' => 1,
                                            'Header' => 'Benchmark.h',
                                            'InLine' => 1,
                                            'Line' => '59',
                                            'MnglName' => '_ZN5unity6scopes7testing9Benchmark6Result6TimingD1Ev',
                                            'Param' => {
                                                         '0' => {
                                                                  'name' => 'this',
                                                                  'type' => '25078373'
                                                                }
                                                       },
                                            'ShortName' => 'Timing',
                                            'Virt' => 1
                                          },
                            '25115523' => {
                                            'Artificial' => 1,
                                            'Class' => '24916960',
                                            'Destructor' => 1,
                                            'Header' => 'Statistics.h',
                                            'InLine' => 1,
                                            'Line' => '171',
                                            'MnglName' => '_ZN5unity6scopes7testing13StudentsTTest6ResultD2Ev',
                                            'Param' => {
                                                         '0' => {
                                                                  'name' => 'this',
                                                                  'type' => '25115518'
                                                                }
                                                       },
                                            'ShortName' => 'Result'
                                          },
                            '25115524' => {
                                            'Artificial' => 1,
                                            'Class' => '24916960',
                                            'Destructor' => 1,
                                            'Header' => 'Statistics.h',
                                            'InLine' => 1,
                                            'Line' => '171',
                                            'MnglName' => '_ZN5unity6scopes7testing13StudentsTTest6ResultD0Ev',
                                            'Param' => {
                                                         '0' => {
                                                                  'name' => 'this',
                                                                  'type' => '25115518'
                                                                }
                                                       },
                                            'ShortName' => 'Result'
                                          },
                            '25387608' => {
                                            'Class' => '24917167',
                                            'Header' => 'Benchmark.h',
                                            'Line' => '307',
                                            'MnglName' => '_ZN5unity6scopes7testing9Benchmark9for_queryERKSt10shared_ptrINS0_9ScopeBaseEENS2_18QueryConfigurationE',
                                            'Param' => {
                                                         '0' => {
                                                                  'name' => 'this',
                                                                  'type' => '25590338'
                                                                },
                                                         '1' => {
                                                                  'name' => 'p1',
                                                                  'type' => '25584913'
                                                                },
                                                         '2' => {
                                                                  'name' => 'p2',
                                                                  'type' => '25387117'
                                                                }
                                                       },
                                            'PureVirt' => 1,
                                            'Return' => '24917176',
                                            'ShortName' => 'for_query',
                                            'VirtPos' => '2'
                                          },
                            '25387658' => {
                                            'Class' => '24917167',
                                            'Header' => 'Benchmark.h',
                                            'Line' => '318',
                                            'MnglName' => '_ZN5unity6scopes7testing9Benchmark11for_previewERKSt10shared_ptrINS0_9ScopeBaseEENS2_20PreviewConfigurationE',
                                            'Param' => {
                                                         '0' => {
                                                                  'name' => 'this',
                                                                  'type' => '25590338'
                                                                },
                                                         '1' => {
                                                                  'name' => 'p1',
                                                                  'type' => '25584913'
                                                                },
                                                         '2' => {
                                                                  'name' => 'p2',
                                                                  'type' => '25387189'
                                                                }
                                                       },
                                            'PureVirt' => 1,
                                            'Return' => '24917176',
                                            'ShortName' => 'for_preview',
                                            'VirtPos' => '3'
                                          },
                            '25387708' => {
                                            'Class' => '24917167',
                                            'Header' => 'Benchmark.h',
                                            'Line' => '329',
                                            'MnglName' => '_ZN5unity6scopes7testing9Benchmark14for_activationERKSt10shared_ptrINS0_9ScopeBaseEENS2_23ActivationConfigurationE',
                                            'Param' => {
                                                         '0' => {
                                                                  'name' => 'this',
                                                                  'type' => '25590338'
                                                                },
                                                         '1' => {
                                                                  'name' => 'p1',
                                                                  'type' => '25584913'
                                                                },
                                                         '2' => {
                                                                  'name' => 'p2',
                                                                  'type' => '25387261'
                                                                }
                                                       },
                                            'PureVirt' => 1,
                                            'Return' => '24917176',
                                            'ShortName' => 'for_activation',
                                            'VirtPos' => '4'
                                          },
                            '25387758' => {
                                            'Class' => '24917167',
                                            'Header' => 'Benchmark.h',
                                            'Line' => '340',
                                            'MnglName' => '_ZN5unity6scopes7testing9Benchmark10for_actionERKSt10shared_ptrINS0_9ScopeBaseEENS2_19ActionConfigurationE',
                                            'Param' => {
                                                         '0' => {
                                                                  'name' => 'this',
                                                                  'type' => '25590338'
                                                                },
                                                         '1' => {
                                                                  'name' => 'p1',
                                                                  'type' => '25584913'
                                                                },
                                                         '2' => {
                                                                  'name' => 'p2',
                                                                  'type' => '25387335'
                                                                }
                                                       },
                                            'PureVirt' => 1,
                                            'Return' => '24917176',
                                            'ShortName' => 'for_action',
                                            'VirtPos' => '5'
                                          },
                            '25387889' => {
                                            'Class' => '25387836',
                                            'Header' => 'InProcessBenchmark.h',
                                            'MnglName' => '_ZN5unity6scopes7testing18InProcessBenchmark9for_queryERKSt10shared_ptrINS0_9ScopeBaseEENS1_9Benchmark18QueryConfigurationE',
                                            'Param' => {
                                                         '0' => {
                                                                  'name' => 'this',
                                                                  'type' => '25683936'
                                                                },
                                                         '1' => {
                                                                  'name' => 'scope',
                                                                  'type' => '25584913'
                                                                },
                                                         '2' => {
                                                                  'name' => 'config',
                                                                  'type' => '25387117'
                                                                }
                                                       },
                                            'Return' => '24917176',
                                            'ShortName' => 'for_query',
                                            'Source' => 'InProcessBenchmark.cpp',
                                            'SourceLine' => '278',
                                            'Virt' => 1,
                                            'VirtPos' => '2'
                                          },
                            '25387939' => {
                                            'Class' => '25387836',
                                            'Header' => 'InProcessBenchmark.h',
                                            'MnglName' => '_ZN5unity6scopes7testing18InProcessBenchmark11for_previewERKSt10shared_ptrINS0_9ScopeBaseEENS1_9Benchmark20PreviewConfigurationE',
                                            'Param' => {
                                                         '0' => {
                                                                  'name' => 'this',
                                                                  'type' => '25683936'
                                                                },
                                                         '1' => {
                                                                  'name' => 'scope',
                                                                  'type' => '25584913'
                                                                },
                                                         '2' => {
                                                                  'name' => 'config',
                                                                  'type' => '25387189'
                                                                }
                                                       },
                                            'Return' => '24917176',
                                            'ShortName' => 'for_preview',
                                            'Source' => 'InProcessBenchmark.cpp',
                                            'SourceLine' => '320',
                                            'Virt' => 1,
                                            'VirtPos' => '3'
                                          },
                            '25387989' => {
                                            'Class' => '25387836',
                                            'Header' => 'InProcessBenchmark.h',
                                            'MnglName' => '_ZN5unity6scopes7testing18InProcessBenchmark14for_activationERKSt10shared_ptrINS0_9ScopeBaseEENS1_9Benchmark23ActivationConfigurationE',
                                            'Param' => {
                                                         '0' => {
                                                                  'name' => 'this',
                                                                  'type' => '25683936'
                                                                },
                                                         '1' => {
                                                                  'name' => 'scope',
                                                                  'type' => '25584913'
                                                                },
                                                         '2' => {
                                                                  'name' => 'config',
                                                                  'type' => '25387261'
                                                                }
                                                       },
                                            'Return' => '24917176',
                                            'ShortName' => 'for_activation',
                                            'Source' => 'InProcessBenchmark.cpp',
                                            'SourceLine' => '362',
                                            'Virt' => 1,
                                            'VirtPos' => '4'
                                          },
                            '25388039' => {
                                            'Class' => '25387836',
                                            'Header' => 'InProcessBenchmark.h',
                                            'MnglName' => '_ZN5unity6scopes7testing18InProcessBenchmark10for_actionERKSt10shared_ptrINS0_9ScopeBaseEENS1_9Benchmark19ActionConfigurationE',
                                            'Param' => {
                                                         '0' => {
                                                                  'name' => 'this',
                                                                  'type' => '25683936'
                                                                },
                                                         '1' => {
                                                                  'name' => 'scope',
                                                                  'type' => '25584913'
                                                                },
                                                         '2' => {
                                                                  'name' => 'config',
                                                                  'type' => '25387335'
                                                                }
                                                       },
                                            'Return' => '24917176',
                                            'ShortName' => 'for_action',
                                            'Source' => 'InProcessBenchmark.cpp',
                                            'SourceLine' => '392',
                                            'Virt' => 1,
                                            'VirtPos' => '5'
                                          },
                            '25687086' => {
                                            'Class' => '25387836',
                                            'Destructor' => 1,
                                            'Header' => 'InProcessBenchmark.h',
                                            'Line' => '54',
                                            'MnglName' => '_ZN5unity6scopes7testing18InProcessBenchmarkD2Ev',
                                            'Param' => {
                                                         '0' => {
                                                                  'name' => 'this',
                                                                  'type' => '25683936'
                                                                }
                                                       },
                                            'ShortName' => 'InProcessBenchmark',
                                            'Virt' => 1
                                          },
                            '25687087' => {
                                            'Class' => '25387836',
                                            'Destructor' => 1,
                                            'Header' => 'InProcessBenchmark.h',
                                            'Line' => '54',
                                            'MnglName' => '_ZN5unity6scopes7testing18InProcessBenchmarkD1Ev',
                                            'Param' => {
                                                         '0' => {
                                                                  'name' => 'this',
                                                                  'type' => '25683936'
                                                                }
                                                       },
                                            'ShortName' => 'InProcessBenchmark',
                                            'Virt' => 1
                                          },
                            '25687535' => {
                                            'Class' => '25387836',
                                            'Destructor' => 1,
                                            'Header' => 'InProcessBenchmark.h',
                                            'Line' => '54',
                                            'MnglName' => '_ZN5unity6scopes7testing18InProcessBenchmarkD0Ev',
                                            'Param' => {
                                                         '0' => {
                                                                  'name' => 'this',
                                                                  'type' => '25683936'
                                                                }
                                                       },
                                            'ShortName' => 'InProcessBenchmark',
                                            'Virt' => 1
                                          },
                            '25687536' => {
                                            'Class' => '25387836',
                                            'Destructor' => 1,
                                            'Header' => 'InProcessBenchmark.h',
                                            'Line' => '54',
                                            'MnglName' => '_ZN5unity6scopes7testing18InProcessBenchmarkD1Ev',
                                            'Param' => {
                                                         '0' => {
                                                                  'name' => 'this',
                                                                  'type' => '25683936'
                                                                }
                                                       },
                                            'ShortName' => 'InProcessBenchmark',
                                            'Virt' => 1
                                          },
                            '25835429' => {
                                            'Class' => '25835376',
                                            'Header' => 'OutOfProcessBenchmark.h',
                                            'MnglName' => '_ZN5unity6scopes7testing21OutOfProcessBenchmark9for_queryERKSt10shared_ptrINS0_9ScopeBaseEENS1_9Benchmark18QueryConfigurationE',
                                            'Param' => {
                                                         '0' => {
                                                                  'name' => 'this',
                                                                  'type' => '25848369'
                                                                },
                                                         '1' => {
                                                                  'name' => 'scope',
                                                                  'type' => '25584913'
                                                                },
                                                         '2' => {
                                                                  'name' => 'config',
                                                                  'type' => '25387117'
                                                                }
                                                       },
                                            'Return' => '24917176',
                                            'ShortName' => 'for_query',
                                            'Source' => 'OutOfProcessBenchmark.cpp',
                                            'SourceLine' => '28',
                                            'Virt' => 1,
                                            'VirtPos' => '2'
                                          },
                            '25835477' => {
                                            'Class' => '25835376',
                                            'Header' => 'OutOfProcessBenchmark.h',
                                            'MnglName' => '_ZN5unity6scopes7testing21OutOfProcessBenchmark11for_previewERKSt10shared_ptrINS0_9ScopeBaseEENS1_9Benchmark20PreviewConfigurationE',
                                            'Param' => {
                                                         '0' => {
                                                                  'name' => 'this',
                                                                  'type' => '25848369'
                                                                },
                                                         '1' => {
                                                                  'name' => 'scope',
                                                                  'type' => '25584913'
                                                                },
                                                         '2' => {
                                                                  'name' => 'config',
                                                                  'type' => '25387189'
                                                                }
                                                       },
                                            'Return' => '24917176',
                                            'ShortName' => 'for_preview',
                                            'Source' => 'OutOfProcessBenchmark.cpp',
                                            'SourceLine' => '63',
                                            'Virt' => 1,
                                            'VirtPos' => '3'
                                          },
                            '25835525' => {
                                            'Class' => '25835376',
                                            'Header' => 'OutOfProcessBenchmark.h',
                                            'MnglName' => '_ZN5unity6scopes7testing21OutOfProcessBenchmark14for_activationERKSt10shared_ptrINS0_9ScopeBaseEENS1_9Benchmark23ActivationConfigurationE',
                                            'Param' => {
                                                         '0' => {
                                                                  'name' => 'this',
                                                                  'type' => '25848369'
                                                                },
                                                         '1' => {
                                                                  'name' => 'scope',
                                                                  'type' => '25584913'
                                                                },
                                                         '2' => {
                                                                  'name' => 'config',
                                                                  'type' => '25387261'
                                                                }
                                                       },
                                            'Return' => '24917176',
                                            'ShortName' => 'for_activation',
                                            'Source' => 'OutOfProcessBenchmark.cpp',
                                            'SourceLine' => '98',
                                            'Virt' => 1,
                                            'VirtPos' => '4'
                                          },
                            '25835573' => {
                                            'Class' => '25835376',
                                            'Header' => 'OutOfProcessBenchmark.h',
                                            'MnglName' => '_ZN5unity6scopes7testing21OutOfProcessBenchmark10for_actionERKSt10shared_ptrINS0_9ScopeBaseEENS1_9Benchmark19ActionConfigurationE',
                                            'Param' => {
                                                         '0' => {
                                                                  'name' => 'this',
                                                                  'type' => '25848369'
                                                                },
                                                         '1' => {
                                                                  'name' => 'scope',
                                                                  'type' => '25584913'
                                                                },
                                                         '2' => {
                                                                  'name' => 'config',
                                                                  'type' => '25387335'
                                                                }
                                                       },
                                            'Return' => '24917176',
                                            'ShortName' => 'for_action',
                                            'Source' => 'OutOfProcessBenchmark.cpp',
                                            'SourceLine' => '133',
                                            'Virt' => 1,
                                            'VirtPos' => '5'
                                          },
                            '25848915' => {
                                            'Class' => '25835376',
                                            'Destructor' => 1,
                                            'Header' => 'OutOfProcessBenchmark.h',
                                            'Line' => '60',
                                            'MnglName' => '_ZN5unity6scopes7testing21OutOfProcessBenchmarkD2Ev',
                                            'Param' => {
                                                         '0' => {
                                                                  'name' => 'this',
                                                                  'type' => '25848369'
                                                                }
                                                       },
                                            'ShortName' => 'OutOfProcessBenchmark',
                                            'Virt' => 1
                                          },
                            '25848916' => {
                                            'Class' => '25835376',
                                            'Destructor' => 1,
                                            'Header' => 'OutOfProcessBenchmark.h',
                                            'Line' => '60',
                                            'MnglName' => '_ZN5unity6scopes7testing21OutOfProcessBenchmarkD1Ev',
                                            'Param' => {
                                                         '0' => {
                                                                  'name' => 'this',
                                                                  'type' => '25848369'
                                                                }
                                                       },
                                            'ShortName' => 'OutOfProcessBenchmark',
                                            'Virt' => 1
                                          },
                            '25848952' => {
                                            'Class' => '25835376',
                                            'Destructor' => 1,
                                            'Header' => 'OutOfProcessBenchmark.h',
                                            'Line' => '60',
                                            'MnglName' => '_ZN5unity6scopes7testing21OutOfProcessBenchmarkD0Ev',
                                            'Param' => {
                                                         '0' => {
                                                                  'name' => 'this',
                                                                  'type' => '25848369'
                                                                }
                                                       },
                                            'ShortName' => 'OutOfProcessBenchmark',
                                            'Virt' => 1
                                          },
                            '25848953' => {
                                            'Class' => '25835376',
                                            'Destructor' => 1,
                                            'Header' => 'OutOfProcessBenchmark.h',
                                            'Line' => '60',
                                            'MnglName' => '_ZN5unity6scopes7testing21OutOfProcessBenchmarkD1Ev',
                                            'Param' => {
                                                         '0' => {
                                                                  'name' => 'this',
                                                                  'type' => '25848369'
                                                                }
                                                       },
                                            'ShortName' => 'OutOfProcessBenchmark',
                                            'Virt' => 1
                                          },
                            '25913531' => {
                                            'Class' => '25896360',
                                            'Destructor' => 1,
                                            'Header' => 'Result.h',
                                            'Line' => '37',
                                            'MnglName' => '_ZN5unity6scopes7testing6ResultD2Ev',
                                            'Param' => {
                                                         '0' => {
                                                                  'name' => 'this',
                                                                  'type' => '25913211'
                                                                }
                                                       },
                                            'ShortName' => 'Result',
                                            'Virt' => 1
                                          },
                            '25913532' => {
                                            'Class' => '25896360',
                                            'Destructor' => 1,
                                            'Header' => 'Result.h',
                                            'Line' => '37',
                                            'MnglName' => '_ZN5unity6scopes7testing6ResultD1Ev',
                                            'Param' => {
                                                         '0' => {
                                                                  'name' => 'this',
                                                                  'type' => '25913211'
                                                                }
                                                       },
                                            'ShortName' => 'Result',
                                            'Virt' => 1
                                          },
                            '25913584' => {
                                            'Class' => '25896360',
                                            'Destructor' => 1,
                                            'Header' => 'Result.h',
                                            'Line' => '37',
                                            'MnglName' => '_ZN5unity6scopes7testing6ResultD0Ev',
                                            'Param' => {
                                                         '0' => {
                                                                  'name' => 'this',
                                                                  'type' => '25913211'
                                                                }
                                                       },
                                            'ShortName' => 'Result',
                                            'Virt' => 1
                                          },
                            '25913585' => {
                                            'Class' => '25896360',
                                            'Destructor' => 1,
                                            'Header' => 'Result.h',
                                            'Line' => '37',
                                            'MnglName' => '_ZN5unity6scopes7testing6ResultD1Ev',
                                            'Param' => {
                                                         '0' => {
                                                                  'name' => 'this',
                                                                  'type' => '25913211'
                                                                }
                                                       },
                                            'ShortName' => 'Result',
                                            'Virt' => 1
                                          },
                            '25913712' => {
                                            'Class' => '25896360',
                                            'Constructor' => 1,
                                            'Header' => 'Result.h',
                                            'MnglName' => '_ZN5unity6scopes7testing6ResultC2Ev',
                                            'Param' => {
                                                         '0' => {
                                                                  'name' => 'this',
                                                                  'type' => '25913211'
                                                                }
                                                       },
                                            'ShortName' => 'Result',
                                            'Source' => 'Result.cpp',
                                            'SourceLine' => '25'
                                          },
                            '25913713' => {
                                            'Class' => '25896360',
                                            'Constructor' => 1,
                                            'Header' => 'Result.h',
                                            'MnglName' => '_ZN5unity6scopes7testing6ResultC1Ev',
                                            'Param' => {
                                                         '0' => {
                                                                  'name' => 'this',
                                                                  'type' => '25913211'
                                                                }
                                                       },
                                            'ShortName' => 'Result',
                                            'Source' => 'Result.cpp',
                                            'SourceLine' => '25'
                                          },
                            '26378839' => {
                                            'Class' => '26378441',
                                            'Header' => 'ScopeMetadataBuilder.h',
                                            'Line' => '83',
                                            'MnglName' => '_ZN5unity6scopes7testing20ScopeMetadataBuilder8scope_idERKNSt7__cxx1112basic_stringIcSt11char_traitsIcESaIcEEE',
                                            'Param' => {
                                                         '0' => {
                                                                  'name' => 'this',
                                                                  'type' => '26419255'
                                                                },
                                                         '1' => {
                                                                  'name' => 'value',
                                                                  'type' => '43056'
                                                                }
                                                       },
                                            'Return' => '26382610',
                                            'ShortName' => 'scope_id'
                                          },
                            '26378874' => {
                                            'Class' => '26378441',
                                            'Header' => 'ScopeMetadataBuilder.h',
                                            'Line' => '84',
                                            'MnglName' => '_ZN5unity6scopes7testing20ScopeMetadataBuilder5proxyERKSt10shared_ptrINS0_5ScopeEE',
                                            'Param' => {
                                                         '0' => {
                                                                  'name' => 'this',
                                                                  'type' => '26419255'
                                                                },
                                                         '1' => {
                                                                  'name' => 'value',
                                                                  'type' => '2479543'
                                                                }
                                                       },
                                            'Return' => '26382610',
                                            'ShortName' => 'proxy'
                                          },
                            '26378909' => {
                                            'Class' => '26378441',
                                            'Header' => 'ScopeMetadataBuilder.h',
                                            'Line' => '85',
                                            'MnglName' => '_ZN5unity6scopes7testing20ScopeMetadataBuilder12display_nameERKNSt7__cxx1112basic_stringIcSt11char_traitsIcESaIcEEE',
                                            'Param' => {
                                                         '0' => {
                                                                  'name' => 'this',
                                                                  'type' => '26419255'
                                                                },
                                                         '1' => {
                                                                  'name' => 'value',
                                                                  'type' => '43056'
                                                                }
                                                       },
                                            'Return' => '26382610',
                                            'ShortName' => 'display_name'
                                          },
                            '26378944' => {
                                            'Class' => '26378441',
                                            'Header' => 'ScopeMetadataBuilder.h',
                                            'Line' => '86',
                                            'MnglName' => '_ZN5unity6scopes7testing20ScopeMetadataBuilder11descriptionERKNSt7__cxx1112basic_stringIcSt11char_traitsIcESaIcEEE',
                                            'Param' => {
                                                         '0' => {
                                                                  'name' => 'this',
                                                                  'type' => '26419255'
                                                                },
                                                         '1' => {
                                                                  'name' => 'value',
                                                                  'type' => '43056'
                                                                }
                                                       },
                                            'Return' => '26382610',
                                            'ShortName' => 'description'
                                          },
                            '26378979' => {
                                            'Class' => '26378441',
                                            'Header' => 'ScopeMetadataBuilder.h',
                                            'Line' => '87',
                                            'MnglName' => '_ZN5unity6scopes7testing20ScopeMetadataBuilder6authorERKNSt7__cxx1112basic_stringIcSt11char_traitsIcESaIcEEE',
                                            'Param' => {
                                                         '0' => {
                                                                  'name' => 'this',
                                                                  'type' => '26419255'
                                                                },
                                                         '1' => {
                                                                  'name' => 'value',
                                                                  'type' => '43056'
                                                                }
                                                       },
                                            'Return' => '26382610',
                                            'ShortName' => 'author'
                                          },
                            '26379014' => {
                                            'Class' => '26378441',
                                            'Header' => 'ScopeMetadataBuilder.h',
                                            'Line' => '88',
                                            'MnglName' => '_ZN5unity6scopes7testing20ScopeMetadataBuilder3artERKNS2_8OptionalINSt7__cxx1112basic_stringIcSt11char_traitsIcESaIcEEEEE',
                                            'Param' => {
                                                         '0' => {
                                                                  'name' => 'this',
                                                                  'type' => '26419255'
                                                                },
                                                         '1' => {
                                                                  'name' => 'value',
                                                                  'type' => '26382624'
                                                                }
                                                       },
                                            'Return' => '26382610',
                                            'ShortName' => 'art'
                                          },
                            '26379316' => {
                                            'Class' => '26378441',
                                            'Header' => 'ScopeMetadataBuilder.h',
                                            'Line' => '89',
                                            'MnglName' => '_ZN5unity6scopes7testing20ScopeMetadataBuilder4iconERKNS2_8OptionalINSt7__cxx1112basic_stringIcSt11char_traitsIcESaIcEEEEE',
                                            'Param' => {
                                                         '0' => {
                                                                  'name' => 'this',
                                                                  'type' => '26419255'
                                                                },
                                                         '1' => {
                                                                  'name' => 'value',
                                                                  'type' => '26382624'
                                                                }
                                                       },
                                            'Return' => '26382610',
                                            'ShortName' => 'icon'
                                          },
                            '26379351' => {
                                            'Class' => '26378441',
                                            'Header' => 'ScopeMetadataBuilder.h',
                                            'Line' => '90',
                                            'MnglName' => '_ZN5unity6scopes7testing20ScopeMetadataBuilder11search_hintERKNS2_8OptionalINSt7__cxx1112basic_stringIcSt11char_traitsIcESaIcEEEEE',
                                            'Param' => {
                                                         '0' => {
                                                                  'name' => 'this',
                                                                  'type' => '26419255'
                                                                },
                                                         '1' => {
                                                                  'name' => 'value',
                                                                  'type' => '26382624'
                                                                }
                                                       },
                                            'Return' => '26382610',
                                            'ShortName' => 'search_hint'
                                          },
                            '26379386' => {
                                            'Class' => '26378441',
                                            'Header' => 'ScopeMetadataBuilder.h',
                                            'Line' => '91',
                                            'MnglName' => '_ZN5unity6scopes7testing20ScopeMetadataBuilder7hot_keyERKNS2_8OptionalINSt7__cxx1112basic_stringIcSt11char_traitsIcESaIcEEEEE',
                                            'Param' => {
                                                         '0' => {
                                                                  'name' => 'this',
                                                                  'type' => '26419255'
                                                                },
                                                         '1' => {
                                                                  'name' => 'value',
                                                                  'type' => '26382624'
                                                                }
                                                       },
                                            'Return' => '26382610',
                                            'ShortName' => 'hot_key'
                                          },
                            '26379421' => {
                                            'Class' => '26378441',
                                            'Header' => 'ScopeMetadataBuilder.h',
                                            'Line' => '92',
                                            'MnglName' => '_ZN5unity6scopes7testing20ScopeMetadataBuilder9invisibleERKNS2_8OptionalIbEE',
                                            'Param' => {
                                                         '0' => {
                                                                  'name' => 'this',
                                                                  'type' => '26419255'
                                                                },
                                                         '1' => {
                                                                  'name' => 'value',
                                                                  'type' => '26382631'
                                                                }
                                                       },
                                            'Return' => '26382610',
                                            'ShortName' => 'invisible'
                                          },
                            '26379723' => {
                                            'Class' => '26378441',
                                            'Header' => 'ScopeMetadataBuilder.h',
                                            'Line' => '93',
                                            'MnglName' => '_ZN5unity6scopes7testing20ScopeMetadataBuilder21appearance_attributesERKNS2_8OptionalISt3mapINSt7__cxx1112basic_stringIcSt11char_traitsIcESaIcEEENS0_7VariantESt4lessISA_ESaISt4pairIKSA_SB_EEEEE',
                                            'Param' => {
                                                         '0' => {
                                                                  'name' => 'this',
                                                                  'type' => '26419255'
                                                                },
                                                         '1' => {
                                                                  'name' => 'value',
                                                                  'type' => '26382638'
                                                                }
                                                       },
                                            'Return' => '26382610',
                                            'ShortName' => 'appearance_attributes'
                                          },
                            '26380025' => {
                                            'Class' => '26378441',
                                            'Header' => 'ScopeMetadataBuilder.h',
                                            'Line' => '94',
                                            'MnglName' => '_ZN5unity6scopes7testing20ScopeMetadataBuilder15scope_directoryERKNS2_8OptionalINSt7__cxx1112basic_stringIcSt11char_traitsIcESaIcEEEEE',
                                            'Param' => {
                                                         '0' => {
                                                                  'name' => 'this',
                                                                  'type' => '26419255'
                                                                },
                                                         '1' => {
                                                                  'name' => 'value',
                                                                  'type' => '26382624'
                                                                }
                                                       },
                                            'Return' => '26382610',
                                            'ShortName' => 'scope_directory'
                                          },
                            '26380060' => {
                                            'Class' => '26378441',
                                            'Header' => 'ScopeMetadataBuilder.h',
                                            'Line' => '95',
                                            'MnglName' => '_ZN5unity6scopes7testing20ScopeMetadataBuilder16results_ttl_typeERKNS2_8OptionalINS0_13ScopeMetadata14ResultsTtlTypeEEE',
                                            'Param' => {
                                                         '0' => {
                                                                  'name' => 'this',
                                                                  'type' => '26419255'
                                                                },
                                                         '1' => {
                                                                  'name' => 'value',
                                                                  'type' => '26382645'
                                                                }
                                                       },
                                            'Return' => '26382610',
                                            'ShortName' => 'results_ttl_type'
                                          },
                            '26380362' => {
                                            'Class' => '26378441',
                                            'Header' => 'ScopeMetadataBuilder.h',
                                            'Line' => '96',
                                            'MnglName' => '_ZN5unity6scopes7testing20ScopeMetadataBuilder20settings_definitionsERKNS2_8OptionalISt6vectorINS0_7VariantESaIS5_EEEE',
                                            'Param' => {
                                                         '0' => {
                                                                  'name' => 'this',
                                                                  'type' => '26419255'
                                                                },
                                                         '1' => {
                                                                  'name' => 'value',
                                                                  'type' => '26382652'
                                                                }
                                                       },
                                            'Return' => '26382610',
                                            'ShortName' => 'settings_definitions'
                                          },
                            '26380664' => {
                                            'Class' => '26378441',
                                            'Header' => 'ScopeMetadataBuilder.h',
                                            'Line' => '97',
                                            'MnglName' => '_ZN5unity6scopes7testing20ScopeMetadataBuilder20location_data_neededERKNS2_8OptionalIbEE',
                                            'Param' => {
                                                         '0' => {
                                                                  'name' => 'this',
                                                                  'type' => '26419255'
                                                                },
                                                         '1' => {
                                                                  'name' => 'value',
                                                                  'type' => '26382631'
                                                                }
                                                       },
                                            'Return' => '26382610',
                                            'ShortName' => 'location_data_needed'
                                          },
                            '26380699' => {
                                            'Class' => '26378441',
                                            'Header' => 'ScopeMetadataBuilder.h',
                                            'Line' => '98',
                                            'MnglName' => '_ZN5unity6scopes7testing20ScopeMetadataBuilder15child_scope_idsERKNS2_8OptionalISt6vectorINSt7__cxx1112basic_stringIcSt11char_traitsIcESaIcEEESaISA_EEEE',
                                            'Param' => {
                                                         '0' => {
                                                                  'name' => 'this',
                                                                  'type' => '26419255'
                                                                },
                                                         '1' => {
                                                                  'name' => 'value',
                                                                  'type' => '26382659'
                                                                }
                                                       },
                                            'Return' => '26382610',
                                            'ShortName' => 'child_scope_ids'
                                          },
                            '26381001' => {
                                            'Class' => '26378441',
                                            'Header' => 'ScopeMetadataBuilder.h',
                                            'Line' => '99',
                                            'MnglName' => '_ZN5unity6scopes7testing20ScopeMetadataBuilder7versionERKNS2_8OptionalIiEE',
                                            'Param' => {
                                                         '0' => {
                                                                  'name' => 'this',
                                                                  'type' => '26419255'
                                                                },
                                                         '1' => {
                                                                  'name' => 'value',
                                                                  'type' => '26382666'
                                                                }
                                                       },
                                            'Return' => '26382610',
                                            'ShortName' => 'version'
                                          },
                            '26381303' => {
                                            'Class' => '26378441',
                                            'Header' => 'ScopeMetadataBuilder.h',
                                            'Line' => '100',
                                            'MnglName' => '_ZN5unity6scopes7testing20ScopeMetadataBuilder8keywordsERKNS2_8OptionalISt3setINSt7__cxx1112basic_stringIcSt11char_traitsIcESaIcEEESt4lessISA_ESaISA_EEEE',
                                            'Param' => {
                                                         '0' => {
                                                                  'name' => 'this',
                                                                  'type' => '26419255'
                                                                },
                                                         '1' => {
                                                                  'name' => 'value',
                                                                  'type' => '26382673'
                                                                }
                                                       },
                                            'Return' => '26382610',
                                            'ShortName' => 'keywords'
                                          },
                            '26381605' => {
                                            'Class' => '26378441',
                                            'Header' => 'ScopeMetadataBuilder.h',
                                            'Line' => '101',
                                            'MnglName' => '_ZN5unity6scopes7testing20ScopeMetadataBuilder13is_aggregatorERKNS2_8OptionalIbEE',
                                            'Param' => {
                                                         '0' => {
                                                                  'name' => 'this',
                                                                  'type' => '26419255'
                                                                },
                                                         '1' => {
                                                                  'name' => 'value',
                                                                  'type' => '26382631'
                                                                }
                                                       },
                                            'Return' => '26382610',
                                            'ShortName' => 'is_aggregator'
                                          },
                            '26381640' => {
                                            'Class' => '26378441',
                                            'Const' => 1,
                                            'Header' => 'ScopeMetadataBuilder.h',
                                            'Line' => '103',
                                            'MnglName' => '_ZNK5unity6scopes7testing20ScopeMetadataBuilderclEv',
                                            'Param' => {
                                                         '0' => {
                                                                  'name' => 'this',
                                                                  'type' => '26466240'
                                                                }
                                                       },
                                            'Return' => '2414723',
                                            'ShortName' => 'operator()'
                                          },
                            '26419260' => {
                                            'Class' => '26378441',
                                            'Constructor' => 1,
                                            'Header' => 'ScopeMetadataBuilder.h',
                                            'Line' => '80',
                                            'MnglName' => '_ZN5unity6scopes7testing20ScopeMetadataBuilderC2Ev',
                                            'Param' => {
                                                         '0' => {
                                                                  'name' => 'this',
                                                                  'type' => '26419255'
                                                                }
                                                       },
                                            'ShortName' => 'ScopeMetadataBuilder',
                                            'Source' => 'ScopeMetadataBuilder.cpp',
                                            'SourceLine' => '55'
                                          },
                            '26419261' => {
                                            'Class' => '26378441',
                                            'Constructor' => 1,
                                            'Header' => 'ScopeMetadataBuilder.h',
                                            'Line' => '80',
                                            'MnglName' => '_ZN5unity6scopes7testing20ScopeMetadataBuilderC1Ev',
                                            'Param' => {
                                                         '0' => {
                                                                  'name' => 'this',
                                                                  'type' => '26419255'
                                                                }
                                                       },
                                            'ShortName' => 'ScopeMetadataBuilder',
                                            'Source' => 'ScopeMetadataBuilder.cpp',
                                            'SourceLine' => '55'
                                          },
                            '26449898' => {
                                            'Class' => '26378441',
                                            'Destructor' => 1,
                                            'Header' => 'ScopeMetadataBuilder.h',
                                            'Line' => '81',
                                            'MnglName' => '_ZN5unity6scopes7testing20ScopeMetadataBuilderD2Ev',
                                            'Param' => {
                                                         '0' => {
                                                                  'name' => 'this',
                                                                  'type' => '26419255'
                                                                }
                                                       },
                                            'ShortName' => 'ScopeMetadataBuilder',
                                            'Source' => 'ScopeMetadataBuilder.cpp',
                                            'SourceLine' => '59'
                                          },
                            '26530975' => {
                                            'Class' => '26530966',
                                            'Header' => 'TypedScopeFixture.h',
                                            'Line' => '58',
                                            'MnglName' => '_ZN5unity6scopes7testing23TypedScopeFixtureHelper19set_scope_directoryERKSt10shared_ptrINS0_9ScopeBaseEERKNSt7__cxx1112basic_stringIcSt11char_traitsIcESaIcEEE',
                                            'Param' => {
                                                         '0' => {
                                                                  'name' => 'scope',
                                                                  'type' => '25584913'
                                                                },
                                                         '1' => {
                                                                  'name' => 'path',
                                                                  'type' => '43056'
                                                                }
                                                       },
                                            'Private' => 1,
                                            'Return' => '1',
                                            'ShortName' => 'set_scope_directory',
                                            'Static' => 1
                                          },
                            '26531001' => {
                                            'Class' => '26530966',
                                            'Header' => 'TypedScopeFixture.h',
                                            'Line' => '59',
                                            'MnglName' => '_ZN5unity6scopes7testing23TypedScopeFixtureHelper19set_cache_directoryERKSt10shared_ptrINS0_9ScopeBaseEERKNSt7__cxx1112basic_stringIcSt11char_traitsIcESaIcEEE',
                                            'Param' => {
                                                         '0' => {
                                                                  'name' => 'scope',
                                                                  'type' => '25584913'
                                                                },
                                                         '1' => {
                                                                  'name' => 'path',
                                                                  'type' => '43056'
                                                                }
                                                       },
                                            'Private' => 1,
                                            'Return' => '1',
                                            'ShortName' => 'set_cache_directory',
                                            'Static' => 1
                                          },
                            '26531027' => {
                                            'Class' => '26530966',
                                            'Header' => 'TypedScopeFixture.h',
                                            'Line' => '60',
                                            'MnglName' => '_ZN5unity6scopes7testing23TypedScopeFixtureHelper17set_app_directoryERKSt10shared_ptrINS0_9ScopeBaseEERKNSt7__cxx1112basic_stringIcSt11char_traitsIcESaIcEEE',
                                            'Param' => {
                                                         '0' => {
                                                                  'name' => 'scope',
                                                                  'type' => '25584913'
                                                                },
                                                         '1' => {
                                                                  'name' => 'path',
                                                                  'type' => '43056'
                                                                }
                                                       },
                                            'Private' => 1,
                                            'Return' => '1',
                                            'ShortName' => 'set_app_directory',
                                            'Static' => 1
                                          },
                            '26531053' => {
                                            'Class' => '26530966',
                                            'Header' => 'TypedScopeFixture.h',
                                            'Line' => '61',
                                            'MnglName' => '_ZN5unity6scopes7testing23TypedScopeFixtureHelper17set_tmp_directoryERKSt10shared_ptrINS0_9ScopeBaseEERKNSt7__cxx1112basic_stringIcSt11char_traitsIcESaIcEEE',
                                            'Param' => {
                                                         '0' => {
                                                                  'name' => 'scope',
                                                                  'type' => '25584913'
                                                                },
                                                         '1' => {
                                                                  'name' => 'path',
                                                                  'type' => '43056'
                                                                }
                                                       },
                                            'Private' => 1,
                                            'Return' => '1',
                                            'ShortName' => 'set_tmp_directory',
                                            'Static' => 1
                                          },
                            '26531079' => {
                                            'Class' => '26530966',
                                            'Header' => 'TypedScopeFixture.h',
                                            'Line' => '62',
                                            'MnglName' => '_ZN5unity6scopes7testing23TypedScopeFixtureHelper12set_registryERKSt10shared_ptrINS0_9ScopeBaseEERKS3_INS0_8RegistryEE',
                                            'Param' => {
                                                         '0' => {
                                                                  'name' => 'scope',
                                                                  'type' => '25584913'
                                                                },
                                                         '1' => {
                                                                  'name' => 'r',
                                                                  'type' => '20662257'
                                                                }
                                                       },
                                            'Private' => 1,
                                            'Return' => '1',
                                            'ShortName' => 'set_registry',
                                            'Static' => 1
                                          },
                            '26575958' => {
                                            'Class' => '26575897',
                                            'Header' => 'AbstractScopeBase.h',
                                            'Line' => '44',
                                            'MnglName' => '_ZN5unity6scopes17AbstractScopeBase5startERKNSt7__cxx1112basic_stringIcSt11char_traitsIcESaIcEEE',
                                            'Param' => {
                                                         '0' => {
                                                                  'name' => 'this',
                                                                  'type' => '26578097'
                                                                },
                                                         '1' => {
                                                                  'name' => 'p1',
                                                                  'type' => '43056'
                                                                }
                                                       },
                                            'PureVirt' => 1,
                                            'Return' => '1',
                                            'ShortName' => 'start',
                                            'VirtPos' => '0'
                                          },
                            '26575998' => {
                                            'Class' => '26575897',
                                            'Header' => 'AbstractScopeBase.h',
                                            'Line' => '45',
                                            'MnglName' => '_ZN5unity6scopes17AbstractScopeBase4stopEv',
                                            'Param' => {
                                                         '0' => {
                                                                  'name' => 'this',
                                                                  'type' => '26578097'
                                                                }
                                                       },
                                            'PureVirt' => 1,
                                            'Return' => '1',
                                            'ShortName' => 'stop',
                                            'VirtPos' => '1'
                                          },
                            '26576033' => {
                                            'Class' => '26575897',
                                            'Header' => 'AbstractScopeBase.h',
                                            'Line' => '46',
                                            'MnglName' => '_ZN5unity6scopes17AbstractScopeBase3runEv',
                                            'Param' => {
                                                         '0' => {
                                                                  'name' => 'this',
                                                                  'type' => '26578097'
                                                                }
                                                       },
                                            'PureVirt' => 1,
                                            'Return' => '1',
                                            'ShortName' => 'run',
                                            'VirtPos' => '2'
                                          },
                            '26576068' => {
                                            'Class' => '26575897',
                                            'Header' => 'AbstractScopeBase.h',
                                            'Line' => '47',
                                            'MnglName' => '_ZN5unity6scopes17AbstractScopeBase6searchERKNS0_11CannedQueryERKNS0_14SearchMetadataE',
                                            'Param' => {
                                                         '0' => {
                                                                  'name' => 'this',
                                                                  'type' => '26578097'
                                                                },
                                                         '1' => {
                                                                  'name' => 'p1',
                                                                  'type' => '112058'
                                                                },
                                                         '2' => {
                                                                  'name' => 'p2',
                                                                  'type' => '709079'
                                                                }
                                                       },
                                            'PureVirt' => 1,
                                            'Return' => '656748',
                                            'ShortName' => 'search',
                                            'VirtPos' => '3'
                                          },
                            '26576117' => {
                                            'Class' => '26575897',
                                            'Header' => 'AbstractScopeBase.h',
                                            'Line' => '48',
                                            'MnglName' => '_ZN5unity6scopes17AbstractScopeBase8activateERKNS0_6ResultERKNS0_14ActionMetadataE',
                                            'Param' => {
                                                         '0' => {
                                                                  'name' => 'this',
                                                                  'type' => '26578097'
                                                                },
                                                         '1' => {
                                                                  'name' => 'p1',
                                                                  'type' => '708119'
                                                                },
                                                         '2' => {
                                                                  'name' => 'p2',
                                                                  'type' => '709086'
                                                                }
                                                       },
                                            'PureVirt' => 1,
                                            'Return' => '656957',
                                            'ShortName' => 'activate',
                                            'VirtPos' => '4'
                                          },
                            '26576166' => {
                                            'Class' => '26575897',
                                            'Header' => 'AbstractScopeBase.h',
                                            'Line' => '49',
                                            'MnglName' => '_ZN5unity6scopes17AbstractScopeBase14perform_actionERKNS0_6ResultERKNS0_14ActionMetadataERKNSt7__cxx1112basic_stringIcSt11char_traitsIcESaIcEEESF_',
                                            'Param' => {
                                                         '0' => {
                                                                  'name' => 'this',
                                                                  'type' => '26578097'
                                                                },
                                                         '1' => {
                                                                  'name' => 'p1',
                                                                  'type' => '708119'
                                                                },
                                                         '2' => {
                                                                  'name' => 'p2',
                                                                  'type' => '709086'
                                                                },
                                                         '3' => {
                                                                  'name' => 'p3',
                                                                  'type' => '43056'
                                                                },
                                                         '4' => {
                                                                  'name' => 'p4',
                                                                  'type' => '43056'
                                                                }
                                                       },
                                            'PureVirt' => 1,
                                            'Return' => '656957',
                                            'ShortName' => 'perform_action',
                                            'VirtPos' => '5'
                                          },
                            '26576225' => {
                                            'Class' => '26575897',
                                            'Header' => 'AbstractScopeBase.h',
                                            'Line' => '53',
                                            'MnglName' => '_ZN5unity6scopes17AbstractScopeBase7previewERKNS0_6ResultERKNS0_14ActionMetadataE',
                                            'Param' => {
                                                         '0' => {
                                                                  'name' => 'this',
                                                                  'type' => '26578097'
                                                                },
                                                         '1' => {
                                                                  'name' => 'p1',
                                                                  'type' => '708119'
                                                                },
                                                         '2' => {
                                                                  'name' => 'p2',
                                                                  'type' => '709086'
                                                                }
                                                       },
                                            'PureVirt' => 1,
                                            'Return' => '26576747',
                                            'ShortName' => 'preview',
                                            'VirtPos' => '6'
                                          },
                            '26576274' => {
                                            'Class' => '26575897',
                                            'Const' => 1,
                                            'Header' => 'AbstractScopeBase.h',
                                            'Line' => '54',
                                            'MnglName' => '_ZNK5unity6scopes17AbstractScopeBase15scope_directoryB5cxx11Ev',
                                            'Param' => {
                                                         '0' => {
                                                                  'name' => 'this',
                                                                  'type' => '26578121'
                                                                }
                                                       },
                                            'PureVirt' => 1,
                                            'Return' => '6735',
                                            'ShortName' => 'scope_directory',
                                            'VirtPos' => '7'
                                          },
                            '26576313' => {
                                            'Class' => '26575897',
                                            'Const' => 1,
                                            'Header' => 'AbstractScopeBase.h',
                                            'Line' => '55',
                                            'MnglName' => '_ZNK5unity6scopes17AbstractScopeBase15cache_directoryB5cxx11Ev',
                                            'Param' => {
                                                         '0' => {
                                                                  'name' => 'this',
                                                                  'type' => '26578121'
                                                                }
                                                       },
                                            'PureVirt' => 1,
                                            'Return' => '6735',
                                            'ShortName' => 'cache_directory',
                                            'VirtPos' => '8'
                                          },
                            '26576352' => {
                                            'Class' => '26575897',
                                            'Const' => 1,
                                            'Header' => 'AbstractScopeBase.h',
                                            'Line' => '56',
                                            'MnglName' => '_ZNK5unity6scopes17AbstractScopeBase13tmp_directoryB5cxx11Ev',
                                            'Param' => {
                                                         '0' => {
                                                                  'name' => 'this',
                                                                  'type' => '26578121'
                                                                }
                                                       },
                                            'PureVirt' => 1,
                                            'Return' => '6735',
                                            'ShortName' => 'tmp_directory',
                                            'VirtPos' => '9'
                                          },
                            '26576391' => {
                                            'Class' => '26575897',
                                            'Const' => 1,
                                            'Header' => 'AbstractScopeBase.h',
                                            'Line' => '57',
                                            'MnglName' => '_ZNK5unity6scopes17AbstractScopeBase8registryEv',
                                            'Param' => {
                                                         '0' => {
                                                                  'name' => 'this',
                                                                  'type' => '26578121'
                                                                }
                                                       },
                                            'PureVirt' => 1,
                                            'Return' => '1219701',
                                            'ShortName' => 'registry',
                                            'VirtPos' => '10'
                                          },
                            '26576430' => {
                                            'Class' => '26575897',
                                            'Const' => 1,
                                            'Header' => 'AbstractScopeBase.h',
                                            'Line' => '58',
                                            'MnglName' => '_ZNK5unity6scopes17AbstractScopeBase8settingsB5cxx11Ev',
                                            'Param' => {
                                                         '0' => {
                                                                  'name' => 'this',
                                                                  'type' => '26578121'
                                                                }
                                                       },
                                            'PureVirt' => 1,
                                            'Return' => '107541',
                                            'ShortName' => 'settings',
                                            'VirtPos' => '11'
                                          },
                            '26576510' => {
                                            'Class' => '26575897',
                                            'Const' => 1,
                                            'Header' => 'AbstractScopeBase.h',
                                            'Line' => '62',
                                            'MnglName' => '_ZNK5unity6scopes17AbstractScopeBase17find_child_scopesEv',
                                            'Param' => {
                                                         '0' => {
                                                                  'name' => 'this',
                                                                  'type' => '26578121'
                                                                }
                                                       },
                                            'PureVirt' => 1,
                                            'Return' => '2909871',
                                            'ShortName' => 'find_child_scopes',
                                            'VirtPos' => '14'
                                          },
                            '26576549' => {
                                            'Class' => '26575897',
                                            'Const' => 1,
                                            'Header' => 'AbstractScopeBase.h',
                                            'Line' => '63',
                                            'MnglName' => '_ZNK5unity6scopes17AbstractScopeBase12child_scopesEv',
                                            'Param' => {
                                                         '0' => {
                                                                  'name' => 'this',
                                                                  'type' => '26578121'
                                                                }
                                                       },
                                            'PureVirt' => 1,
                                            'Return' => '2909871',
                                            'ShortName' => 'child_scopes',
                                            'VirtPos' => '15'
                                          },
                            '26576588' => {
                                            'Class' => '26575897',
                                            'Header' => 'AbstractScopeBase.h',
                                            'Line' => '65',
                                            'MnglName' => '_ZN5unity6scopes17AbstractScopeBase22activate_result_actionERKNS0_6ResultERKNS0_14ActionMetadataERKNSt7__cxx1112basic_stringIcSt11char_traitsIcESaIcEEE',
                                            'Param' => {
                                                         '0' => {
                                                                  'name' => 'this',
                                                                  'type' => '26578097'
                                                                },
                                                         '1' => {
                                                                  'name' => 'p1',
                                                                  'type' => '708119'
                                                                },
                                                         '2' => {
                                                                  'name' => 'p2',
                                                                  'type' => '709086'
                                                                },
                                                         '3' => {
                                                                  'name' => 'p3',
                                                                  'type' => '43056'
                                                                }
                                                       },
                                            'PureVirt' => 1,
                                            'Return' => '656957',
                                            'ShortName' => 'activate_result_action',
                                            'VirtPos' => '16'
                                          },
                            '26578194' => {
                                            'Class' => '26575897',
                                            'Constructor' => 1,
                                            'Header' => 'AbstractScopeBase.h',
                                            'Line' => '40',
                                            'MnglName' => '_ZN5unity6scopes17AbstractScopeBaseC2Ev',
                                            'Param' => {
                                                         '0' => {
                                                                  'name' => 'this',
                                                                  'type' => '26578189'
                                                                }
                                                       },
                                            'Protected' => 1,
                                            'ShortName' => 'AbstractScopeBase'
                                          },
                            '26578195' => {
                                            'Class' => '26575897',
                                            'Constructor' => 1,
                                            'Header' => 'AbstractScopeBase.h',
                                            'Line' => '40',
                                            'MnglName' => '_ZN5unity6scopes17AbstractScopeBaseC1Ev',
                                            'Param' => {
                                                         '0' => {
                                                                  'name' => 'this',
                                                                  'type' => '26578189'
                                                                }
                                                       },
                                            'Protected' => 1,
                                            'ShortName' => 'AbstractScopeBase'
                                          },
                            '26578267' => {
                                            'Class' => '26575897',
                                            'Destructor' => 1,
                                            'Header' => 'AbstractScopeBase.h',
                                            'Line' => '40',
                                            'MnglName' => '_ZN5unity6scopes17AbstractScopeBaseD2Ev',
                                            'Param' => {
                                                         '0' => {
                                                                  'name' => 'this',
                                                                  'type' => '26578189'
                                                                }
                                                       },
                                            'ShortName' => 'AbstractScopeBase',
                                            'Virt' => 1
                                          },
                            '26578268' => {
                                            'Class' => '26575897',
                                            'Destructor' => 1,
                                            'Header' => 'AbstractScopeBase.h',
                                            'Line' => '40',
                                            'MnglName' => '_ZN5unity6scopes17AbstractScopeBaseD1Ev',
                                            'Param' => {
                                                         '0' => {
                                                                  'name' => 'this',
                                                                  'type' => '26578189'
                                                                }
                                                       },
                                            'ShortName' => 'AbstractScopeBase',
                                            'Virt' => 1
                                          },
                            '26578304' => {
                                            'Class' => '26575897',
                                            'Destructor' => 1,
                                            'Header' => 'AbstractScopeBase.h',
                                            'Line' => '40',
                                            'MnglName' => '_ZN5unity6scopes17AbstractScopeBaseD0Ev',
                                            'Param' => {
                                                         '0' => {
                                                                  'name' => 'this',
                                                                  'type' => '26578189'
                                                                }
                                                       },
                                            'ShortName' => 'AbstractScopeBase',
                                            'Virt' => 1
                                          },
                            '26578305' => {
                                            'Class' => '26575897',
                                            'Destructor' => 1,
                                            'Header' => 'AbstractScopeBase.h',
                                            'Line' => '40',
                                            'MnglName' => '_ZN5unity6scopes17AbstractScopeBaseD1Ev',
                                            'Param' => {
                                                         '0' => {
                                                                  'name' => 'this',
                                                                  'type' => '26578189'
                                                                }
                                                       },
                                            'ShortName' => 'AbstractScopeBase',
                                            'Virt' => 1
                                          },
                            '26621589' => {
                                            'Class' => '655354',
                                            'Header' => 'QueryMetadata.h',
                                            'Line' => '96',
                                            'MnglName' => '_ZN5unity6scopes13QueryMetadataaSEOS1_',
                                            'Private' => 1,
                                            'Return' => '1',
                                            'ShortName' => 'operator=',
                                            'Static' => 1
                                          },
                            '26621708' => {
                                            'Class' => '656903',
                                            'Header' => 'ActionMetadata.h',
                                            'MnglName' => '_ZN5unity6scopes14ActionMetadata14set_scope_dataERKNS0_7VariantE',
                                            'Param' => {
                                                         '0' => {
                                                                  'name' => 'this',
                                                                  'type' => '26628232'
                                                                },
                                                         '1' => {
                                                                  'name' => 'data',
                                                                  'type' => '111520'
                                                                }
                                                       },
                                            'Return' => '1',
                                            'ShortName' => 'set_scope_data',
                                            'Source' => 'ActionMetadata.cpp',
                                            'SourceLine' => '64'
                                          },
                            '26621739' => {
                                            'Class' => '656903',
                                            'Const' => 1,
                                            'Header' => 'ActionMetadata.h',
                                            'MnglName' => '_ZNK5unity6scopes14ActionMetadata10scope_dataEv',
                                            'Param' => {
                                                         '0' => {
                                                                  'name' => 'this',
                                                                  'type' => '26629551'
                                                                }
                                                       },
                                            'Return' => '106151',
                                            'ShortName' => 'scope_data',
                                            'Source' => 'ActionMetadata.cpp',
                                            'SourceLine' => '69'
                                          },
                            '26621839' => {
                                            'Class' => '656903',
                                            'Header' => 'ActionMetadata.h',
                                            'MnglName' => '_ZN5unity6scopes14ActionMetadataaSERKS1_',
                                            'Param' => {
                                                         '0' => {
                                                                  'name' => 'this',
                                                                  'type' => '26628232'
                                                                },
                                                         '1' => {
                                                                  'name' => 'other',
                                                                  'type' => '709086'
                                                                }
                                                       },
                                            'Return' => '25586258',
                                            'ShortName' => 'operator=',
                                            'Source' => 'ActionMetadata.cpp',
                                            'SourceLine' => '51'
                                          },
                            '26621874' => {
                                            'Class' => '656903',
                                            'Header' => 'ActionMetadata.h',
                                            'Line' => '41',
                                            'MnglName' => '_ZN5unity6scopes14ActionMetadataaSEOS1_',
                                            'Param' => {
                                                         '0' => {
                                                                  'name' => 'this',
                                                                  'type' => '26628232'
                                                                },
                                                         '1' => {
                                                                  'name' => 'p1',
                                                                  'type' => '26629265'
                                                                }
                                                       },
                                            'Return' => '25586258',
                                            'ShortName' => 'operator='
                                          },
                            '26621909' => {
                                            'Class' => '656903',
                                            'Header' => 'ActionMetadata.h',
                                            'MnglName' => '_ZN5unity6scopes14ActionMetadata8set_hintERKNSt7__cxx1112basic_stringIcSt11char_traitsIcESaIcEEERKNS0_7VariantE',
                                            'Param' => {
                                                         '0' => {
                                                                  'name' => 'this',
                                                                  'type' => '26628232'
                                                                },
                                                         '1' => {
                                                                  'name' => 'key',
                                                                  'type' => '43056'
                                                                },
                                                         '2' => {
                                                                  'name' => 'value',
                                                                  'type' => '111520'
                                                                }
                                                       },
                                            'Return' => '1',
                                            'ShortName' => 'set_hint',
                                            'Source' => 'ActionMetadata.cpp',
                                            'SourceLine' => '74'
                                          },
                            '26621945' => {
                                            'Class' => '656903',
                                            'Const' => 1,
                                            'Header' => 'ActionMetadata.h',
                                            'MnglName' => '_ZNK5unity6scopes14ActionMetadata5hintsB5cxx11Ev',
                                            'Param' => {
                                                         '0' => {
                                                                  'name' => 'this',
                                                                  'type' => '26629551'
                                                                }
                                                       },
                                            'Return' => '107541',
                                            'ShortName' => 'hints',
                                            'Source' => 'ActionMetadata.cpp',
                                            'SourceLine' => '79'
                                          },
                            '26622010' => {
                                            'Class' => '656903',
                                            'Header' => 'ActionMetadata.h',
                                            'MnglName' => '_ZN5unity6scopes14ActionMetadataixERKNSt7__cxx1112basic_stringIcSt11char_traitsIcESaIcEEE',
                                            'Param' => {
                                                         '0' => {
                                                                  'name' => 'this',
                                                                  'type' => '26628232'
                                                                },
                                                         '1' => {
                                                                  'name' => 'key',
                                                                  'type' => '43056'
                                                                }
                                                       },
                                            'Return' => '111532',
                                            'ShortName' => 'operator[]',
                                            'Source' => 'ActionMetadata.cpp',
                                            'SourceLine' => '84'
                                          },
                            '26628237' => {
                                            'Class' => '656903',
                                            'Destructor' => 1,
                                            'Header' => 'ActionMetadata.h',
                                            'MnglName' => '_ZN5unity6scopes14ActionMetadataD2Ev',
                                            'Param' => {
                                                         '0' => {
                                                                  'name' => 'this',
                                                                  'type' => '26628232'
                                                                }
                                                       },
                                            'ShortName' => 'ActionMetadata',
                                            'Source' => 'ActionMetadata.cpp',
                                            'SourceLine' => '47',
                                            'Virt' => 1
                                          },
                            '26628238' => {
                                            'Class' => '656903',
                                            'Destructor' => 1,
                                            'Header' => 'ActionMetadata.h',
                                            'MnglName' => '_ZN5unity6scopes14ActionMetadataD1Ev',
                                            'Param' => {
                                                         '0' => {
                                                                  'name' => 'this',
                                                                  'type' => '26628232'
                                                                }
                                                       },
                                            'ShortName' => 'ActionMetadata',
                                            'Source' => 'ActionMetadata.cpp',
                                            'SourceLine' => '47',
                                            'Virt' => 1
                                          },
                            '26628290' => {
                                            'Class' => '656903',
                                            'Destructor' => 1,
                                            'Header' => 'ActionMetadata.h',
                                            'MnglName' => '_ZN5unity6scopes14ActionMetadataD0Ev',
                                            'Param' => {
                                                         '0' => {
                                                                  'name' => 'this',
                                                                  'type' => '26628232'
                                                                }
                                                       },
                                            'ShortName' => 'ActionMetadata',
                                            'Source' => 'ActionMetadata.cpp',
                                            'SourceLine' => '47',
                                            'Virt' => 1
                                          },
                            '26628291' => {
                                            'Class' => '656903',
                                            'Destructor' => 1,
                                            'Header' => 'ActionMetadata.h',
                                            'MnglName' => '_ZN5unity6scopes14ActionMetadataD1Ev',
                                            'Param' => {
                                                         '0' => {
                                                                  'name' => 'this',
                                                                  'type' => '26628232'
                                                                }
                                                       },
                                            'ShortName' => 'ActionMetadata',
                                            'Source' => 'ActionMetadata.cpp',
                                            'SourceLine' => '47',
                                            'Virt' => 1
                                          },
                            '26628954' => {
                                            'Class' => '656903',
                                            'Constructor' => 1,
                                            'Header' => 'ActionMetadata.h',
                                            'MnglName' => '_ZN5unity6scopes14ActionMetadataC2ERKNSt7__cxx1112basic_stringIcSt11char_traitsIcESaIcEEES9_',
                                            'Param' => {
                                                         '0' => {
                                                                  'name' => 'this',
                                                                  'type' => '26628232'
                                                                },
                                                         '1' => {
                                                                  'name' => 'locale',
                                                                  'type' => '43056'
                                                                },
                                                         '2' => {
                                                                  'name' => 'form_factor',
                                                                  'type' => '43056'
                                                                }
                                                       },
                                            'ShortName' => 'ActionMetadata',
                                            'Source' => 'ActionMetadata.cpp',
                                            'SourceLine' => '29'
                                          },
                            '26628955' => {
                                            'Class' => '656903',
                                            'Constructor' => 1,
                                            'Header' => 'ActionMetadata.h',
                                            'MnglName' => '_ZN5unity6scopes14ActionMetadataC1ERKNSt7__cxx1112basic_stringIcSt11char_traitsIcESaIcEEES9_',
                                            'Param' => {
                                                         '0' => {
                                                                  'name' => 'this',
                                                                  'type' => '26628232'
                                                                },
                                                         '1' => {
                                                                  'name' => 'locale',
                                                                  'type' => '43056'
                                                                },
                                                         '2' => {
                                                                  'name' => 'form_factor',
                                                                  'type' => '43056'
                                                                }
                                                       },
                                            'ShortName' => 'ActionMetadata',
                                            'Source' => 'ActionMetadata.cpp',
                                            'SourceLine' => '29'
                                          },
                            '26629163' => {
                                            'Class' => '656903',
                                            'Constructor' => 1,
                                            'Header' => 'ActionMetadata.h',
                                            'MnglName' => '_ZN5unity6scopes14ActionMetadataC2EPNS0_8internal18ActionMetadataImplE',
                                            'Param' => {
                                                         '0' => {
                                                                  'name' => 'this',
                                                                  'type' => '26628232'
                                                                },
                                                         '1' => {
                                                                  'name' => 'impl',
                                                                  'type' => '10437770'
                                                                }
                                                       },
                                            'Private' => 1,
                                            'ShortName' => 'ActionMetadata',
                                            'Source' => 'ActionMetadata.cpp',
                                            'SourceLine' => '35'
                                          },
                            '26629164' => {
                                            'Class' => '656903',
                                            'Constructor' => 1,
                                            'Header' => 'ActionMetadata.h',
                                            'MnglName' => '_ZN5unity6scopes14ActionMetadataC1EPNS0_8internal18ActionMetadataImplE',
                                            'Param' => {
                                                         '0' => {
                                                                  'name' => 'this',
                                                                  'type' => '26628232'
                                                                },
                                                         '1' => {
                                                                  'name' => 'impl',
                                                                  'type' => '10437770'
                                                                }
                                                       },
                                            'Private' => 1,
                                            'ShortName' => 'ActionMetadata',
                                            'Source' => 'ActionMetadata.cpp',
                                            'SourceLine' => '35'
                                          },
                            '26629270' => {
                                            'Class' => '656903',
                                            'Constructor' => 1,
                                            'Header' => 'ActionMetadata.h',
                                            'Line' => '41',
                                            'MnglName' => '_ZN5unity6scopes14ActionMetadataC2EOS1_',
                                            'Param' => {
                                                         '0' => {
                                                                  'name' => 'this',
                                                                  'type' => '26628232'
                                                                },
                                                         '1' => {
                                                                  'name' => 'p1',
                                                                  'type' => '26629265'
                                                                }
                                                       },
                                            'ShortName' => 'ActionMetadata'
                                          },
                            '26629271' => {
                                            'Class' => '656903',
                                            'Constructor' => 1,
                                            'Header' => 'ActionMetadata.h',
                                            'Line' => '41',
                                            'MnglName' => '_ZN5unity6scopes14ActionMetadataC1EOS1_',
                                            'Param' => {
                                                         '0' => {
                                                                  'name' => 'this',
                                                                  'type' => '26628232'
                                                                },
                                                         '1' => {
                                                                  'name' => 'p1',
                                                                  'type' => '26629265'
                                                                }
                                                       },
                                            'ShortName' => 'ActionMetadata'
                                          },
                            '26636553' => {
                                            'Class' => '656903',
                                            'Constructor' => 1,
                                            'Header' => 'ActionMetadata.h',
                                            'MnglName' => '_ZN5unity6scopes14ActionMetadataC2ERKS1_',
                                            'Param' => {
                                                         '0' => {
                                                                  'name' => 'this',
                                                                  'type' => '26628232'
                                                                },
                                                         '1' => {
                                                                  'name' => 'other',
                                                                  'type' => '709086'
                                                                }
                                                       },
                                            'ShortName' => 'ActionMetadata',
                                            'Source' => 'ActionMetadata.cpp',
                                            'SourceLine' => '40'
                                          },
                            '26636554' => {
                                            'Class' => '656903',
                                            'Constructor' => 1,
                                            'Header' => 'ActionMetadata.h',
                                            'MnglName' => '_ZN5unity6scopes14ActionMetadataC1ERKS1_',
                                            'Param' => {
                                                         '0' => {
                                                                  'name' => 'this',
                                                                  'type' => '26628232'
                                                                },
                                                         '1' => {
                                                                  'name' => 'other',
                                                                  'type' => '709086'
                                                                }
                                                       },
                                            'ShortName' => 'ActionMetadata',
                                            'Source' => 'ActionMetadata.cpp',
                                            'SourceLine' => '40'
                                          },
                            '26662874' => {
                                            'Class' => '10820793',
                                            'Header' => 'ActivationListenerBase.h',
                                            'MnglName' => '_ZN5unity6scopes22ActivationListenerBase9activatedERKNS0_18ActivationResponseE',
                                            'Param' => {
                                                         '0' => {
                                                                  'name' => 'this',
                                                                  'type' => '10823068'
                                                                },
                                                         '1' => {
                                                                  'name' => 'p1',
                                                                  'type' => '708133'
                                                                }
                                                       },
                                            'PureVirt' => 1,
                                            'Return' => '1',
                                            'ShortName' => 'activated',
                                            'Source' => 'ActivationListenerBase.cpp',
                                            'SourceLine' => '37',
                                            'VirtPos' => '4'
                                          },
                            '26662913' => {
                                            'Class' => '10820793',
                                            'Header' => 'ActivationListenerBase.h',
                                            'MnglName' => '_ZN5unity6scopes22ActivationListenerBase8finishedERKNS0_17CompletionDetailsE',
                                            'Param' => {
                                                         '0' => {
                                                                  'name' => 'this',
                                                                  'type' => '26663657'
                                                                },
                                                         '1' => {
                                                                  'name' => 'p1',
                                                                  'type' => '45302'
                                                                }
                                                       },
                                            'Return' => '1',
                                            'ShortName' => 'finished',
                                            'Source' => 'ActivationListenerBase.cpp',
                                            'SourceLine' => '42',
                                            'Virt' => 1,
                                            'VirtPos' => '2'
                                          },
                            '26663700' => {
                                            'Class' => '10820793',
                                            'Destructor' => 1,
                                            'Header' => 'ActivationListenerBase.h',
                                            'MnglName' => '_ZN5unity6scopes22ActivationListenerBaseD2Ev',
                                            'Param' => {
                                                         '0' => {
                                                                  'name' => 'this',
                                                                  'type' => '26663657'
                                                                }
                                                       },
                                            'ShortName' => 'ActivationListenerBase',
                                            'Source' => 'ActivationListenerBase.cpp',
                                            'SourceLine' => '32',
                                            'Virt' => 1
                                          },
                            '26663701' => {
                                            'Class' => '10820793',
                                            'Destructor' => 1,
                                            'Header' => 'ActivationListenerBase.h',
                                            'MnglName' => '_ZN5unity6scopes22ActivationListenerBaseD1Ev',
                                            'Param' => {
                                                         '0' => {
                                                                  'name' => 'this',
                                                                  'type' => '26663657'
                                                                }
                                                       },
                                            'ShortName' => 'ActivationListenerBase',
                                            'Source' => 'ActivationListenerBase.cpp',
                                            'SourceLine' => '32',
                                            'Virt' => 1
                                          },
                            '26663749' => {
                                            'Class' => '10820793',
                                            'Destructor' => 1,
                                            'Header' => 'ActivationListenerBase.h',
                                            'MnglName' => '_ZN5unity6scopes22ActivationListenerBaseD0Ev',
                                            'Param' => {
                                                         '0' => {
                                                                  'name' => 'this',
                                                                  'type' => '26663657'
                                                                }
                                                       },
                                            'ShortName' => 'ActivationListenerBase',
                                            'Source' => 'ActivationListenerBase.cpp',
                                            'SourceLine' => '32',
                                            'Virt' => 1
                                          },
                            '26663750' => {
                                            'Class' => '10820793',
                                            'Destructor' => 1,
                                            'Header' => 'ActivationListenerBase.h',
                                            'MnglName' => '_ZN5unity6scopes22ActivationListenerBaseD1Ev',
                                            'Param' => {
                                                         '0' => {
                                                                  'name' => 'this',
                                                                  'type' => '26663657'
                                                                }
                                                       },
                                            'ShortName' => 'ActivationListenerBase',
                                            'Source' => 'ActivationListenerBase.cpp',
                                            'SourceLine' => '32',
                                            'Virt' => 1
                                          },
                            '26663842' => {
                                            'Class' => '10820793',
                                            'Constructor' => 1,
                                            'Header' => 'ActivationListenerBase.h',
                                            'MnglName' => '_ZN5unity6scopes22ActivationListenerBaseC2Ev',
                                            'Param' => {
                                                         '0' => {
                                                                  'name' => 'this',
                                                                  'type' => '26663657'
                                                                }
                                                       },
                                            'Protected' => 1,
                                            'ShortName' => 'ActivationListenerBase',
                                            'Source' => 'ActivationListenerBase.cpp',
                                            'SourceLine' => '28'
                                          },
                            '26663843' => {
                                            'Class' => '10820793',
                                            'Constructor' => 1,
                                            'Header' => 'ActivationListenerBase.h',
                                            'MnglName' => '_ZN5unity6scopes22ActivationListenerBaseC1Ev',
                                            'Param' => {
                                                         '0' => {
                                                                  'name' => 'this',
                                                                  'type' => '26663657'
                                                                }
                                                       },
                                            'Protected' => 1,
                                            'ShortName' => 'ActivationListenerBase',
                                            'Source' => 'ActivationListenerBase.cpp',
                                            'SourceLine' => '28'
                                          },
                            '26704464' => {
                                            'Class' => '656948',
                                            'Header' => 'ActivationQueryBase.h',
                                            'MnglName' => '_ZN5unity6scopes19ActivationQueryBase9cancelledEv',
                                            'Param' => {
                                                         '0' => {
                                                                  'name' => 'this',
                                                                  'type' => '712427'
                                                                }
                                                       },
                                            'Return' => '1',
                                            'ShortName' => 'cancelled',
                                            'Source' => 'ActivationQueryBase.cpp',
                                            'SourceLine' => '50',
                                            'Virt' => 1,
                                            'VirtPos' => '0'
                                          },
                            '26704498' => {
                                            'Class' => '656948',
                                            'Header' => 'ActivationQueryBase.h',
                                            'MnglName' => '_ZN5unity6scopes19ActivationQueryBase8activateEv',
                                            'Param' => {
                                                         '0' => {
                                                                  'name' => 'this',
                                                                  'type' => '712427'
                                                                }
                                                       },
                                            'Return' => '654630',
                                            'ShortName' => 'activate',
                                            'Source' => 'ActivationQueryBase.cpp',
                                            'SourceLine' => '55',
                                            'Virt' => 1,
                                            'VirtPos' => '3'
                                          },
                            '26704537' => {
                                            'Class' => '656948',
                                            'Const' => 1,
                                            'Header' => 'ActivationQueryBase.h',
                                            'MnglName' => '_ZNK5unity6scopes19ActivationQueryBase6resultEv',
                                            'Param' => {
                                                         '0' => {
                                                                  'name' => 'this',
                                                                  'type' => '26711723'
                                                                }
                                                       },
                                            'Return' => '44741',
                                            'ShortName' => 'result',
                                            'Source' => 'ActivationQueryBase.cpp',
                                            'SourceLine' => '60'
                                          },
                            '26704567' => {
                                            'Class' => '656948',
                                            'Const' => 1,
                                            'Header' => 'ActivationQueryBase.h',
                                            'MnglName' => '_ZNK5unity6scopes19ActivationQueryBase15action_metadataEv',
                                            'Param' => {
                                                         '0' => {
                                                                  'name' => 'this',
                                                                  'type' => '26711723'
                                                                }
                                                       },
                                            'Return' => '656903',
                                            'ShortName' => 'action_metadata',
                                            'Source' => 'ActivationQueryBase.cpp',
                                            'SourceLine' => '65'
                                          },
                            '26704597' => {
                                            'Class' => '656948',
                                            'Const' => 1,
                                            'Header' => 'ActivationQueryBase.h',
                                            'MnglName' => '_ZNK5unity6scopes19ActivationQueryBase9widget_idB5cxx11Ev',
                                            'Param' => {
                                                         '0' => {
                                                                  'name' => 'this',
                                                                  'type' => '26711723'
                                                                }
                                                       },
                                            'Return' => '6735',
                                            'ShortName' => 'widget_id',
                                            'Source' => 'ActivationQueryBase.cpp',
                                            'SourceLine' => '70'
                                          },
                            '26704627' => {
                                            'Class' => '656948',
                                            'Const' => 1,
                                            'Header' => 'ActivationQueryBase.h',
                                            'MnglName' => '_ZNK5unity6scopes19ActivationQueryBase9action_idB5cxx11Ev',
                                            'Param' => {
                                                         '0' => {
                                                                  'name' => 'this',
                                                                  'type' => '26711723'
                                                                }
                                                       },
                                            'Return' => '6735',
                                            'ShortName' => 'action_id',
                                            'Source' => 'ActivationQueryBase.cpp',
                                            'SourceLine' => '75'
                                          },
                            '26704657' => {
                                            'Class' => '656948',
                                            'Const' => 1,
                                            'Header' => 'ActivationQueryBase.h',
                                            'MnglName' => '_ZNK5unity6scopes19ActivationQueryBase3fwdEv',
                                            'Param' => {
                                                         '0' => {
                                                                  'name' => 'this',
                                                                  'type' => '26711723'
                                                                }
                                                       },
                                            'Private' => 1,
                                            'Return' => '10507219',
                                            'ShortName' => 'fwd',
                                            'Source' => 'ActivationQueryBase.cpp',
                                            'SourceLine' => '80'
                                          },
                            '26708525' => {
                                            'Class' => '656948',
                                            'Destructor' => 1,
                                            'Header' => 'ActivationQueryBase.h',
                                            'MnglName' => '_ZN5unity6scopes19ActivationQueryBaseD2Ev',
                                            'Param' => {
                                                         '0' => {
                                                                  'name' => 'this',
                                                                  'type' => '712427'
                                                                }
                                                       },
                                            'ShortName' => 'ActivationQueryBase',
                                            'Source' => 'ActivationQueryBase.cpp',
                                            'SourceLine' => '45',
                                            'Virt' => 1
                                          },
                            '26708526' => {
                                            'Class' => '656948',
                                            'Destructor' => 1,
                                            'Header' => 'ActivationQueryBase.h',
                                            'MnglName' => '_ZN5unity6scopes19ActivationQueryBaseD1Ev',
                                            'Param' => {
                                                         '0' => {
                                                                  'name' => 'this',
                                                                  'type' => '712427'
                                                                }
                                                       },
                                            'ShortName' => 'ActivationQueryBase',
                                            'Source' => 'ActivationQueryBase.cpp',
                                            'SourceLine' => '45',
                                            'Virt' => 1
                                          },
                            '26708578' => {
                                            'Class' => '656948',
                                            'Destructor' => 1,
                                            'Header' => 'ActivationQueryBase.h',
                                            'MnglName' => '_ZN5unity6scopes19ActivationQueryBaseD0Ev',
                                            'Param' => {
                                                         '0' => {
                                                                  'name' => 'this',
                                                                  'type' => '712427'
                                                                }
                                                       },
                                            'ShortName' => 'ActivationQueryBase',
                                            'Source' => 'ActivationQueryBase.cpp',
                                            'SourceLine' => '45',
                                            'Virt' => 1
                                          },
                            '26708579' => {
                                            'Class' => '656948',
                                            'Destructor' => 1,
                                            'Header' => 'ActivationQueryBase.h',
                                            'MnglName' => '_ZN5unity6scopes19ActivationQueryBaseD1Ev',
                                            'Param' => {
                                                         '0' => {
                                                                  'name' => 'this',
                                                                  'type' => '712427'
                                                                }
                                                       },
                                            'ShortName' => 'ActivationQueryBase',
                                            'Source' => 'ActivationQueryBase.cpp',
                                            'SourceLine' => '45',
                                            'Virt' => 1
                                          },
                            '26708713' => {
                                            'Class' => '656948',
                                            'Constructor' => 1,
                                            'Header' => 'ActivationQueryBase.h',
                                            'MnglName' => '_ZN5unity6scopes19ActivationQueryBaseC2ERKNS0_6ResultERKNS0_14ActionMetadataE',
                                            'Param' => {
                                                         '0' => {
                                                                  'name' => 'this',
                                                                  'type' => '712427'
                                                                },
                                                         '1' => {
                                                                  'name' => 'result',
                                                                  'type' => '708119'
                                                                },
                                                         '2' => {
                                                                  'name' => 'metadata',
                                                                  'type' => '709086'
                                                                }
                                                       },
                                            'ShortName' => 'ActivationQueryBase',
                                            'Source' => 'ActivationQueryBase.cpp',
                                            'SourceLine' => '29'
                                          },
                            '26708714' => {
                                            'Class' => '656948',
                                            'Constructor' => 1,
                                            'Header' => 'ActivationQueryBase.h',
                                            'MnglName' => '_ZN5unity6scopes19ActivationQueryBaseC1ERKNS0_6ResultERKNS0_14ActionMetadataE',
                                            'Param' => {
                                                         '0' => {
                                                                  'name' => 'this',
                                                                  'type' => '712427'
                                                                },
                                                         '1' => {
                                                                  'name' => 'result',
                                                                  'type' => '708119'
                                                                },
                                                         '2' => {
                                                                  'name' => 'metadata',
                                                                  'type' => '709086'
                                                                }
                                                       },
                                            'ShortName' => 'ActivationQueryBase',
                                            'Source' => 'ActivationQueryBase.cpp',
                                            'SourceLine' => '29'
                                          },
                            '26710438' => {
                                            'Class' => '656948',
                                            'Constructor' => 1,
                                            'Header' => 'ActivationQueryBase.h',
                                            'MnglName' => '_ZN5unity6scopes19ActivationQueryBaseC2ERKNS0_6ResultERKNS0_14ActionMetadataERKNSt7__cxx1112basic_stringIcSt11char_traitsIcESaIcEEESF_',
                                            'Param' => {
                                                         '0' => {
                                                                  'name' => 'this',
                                                                  'type' => '712427'
                                                                },
                                                         '1' => {
                                                                  'name' => 'result',
                                                                  'type' => '708119'
                                                                },
                                                         '2' => {
                                                                  'name' => 'metadata',
                                                                  'type' => '709086'
                                                                },
                                                         '3' => {
                                                                  'name' => 'widget_id',
                                                                  'type' => '43056'
                                                                },
                                                         '4' => {
                                                                  'name' => 'action_id',
                                                                  'offset' => '0',
                                                                  'type' => '43056'
                                                                }
                                                       },
                                            'ShortName' => 'ActivationQueryBase',
                                            'Source' => 'ActivationQueryBase.cpp',
                                            'SourceLine' => '35'
                                          },
                            '26710439' => {
                                            'Class' => '656948',
                                            'Constructor' => 1,
                                            'Header' => 'ActivationQueryBase.h',
                                            'MnglName' => '_ZN5unity6scopes19ActivationQueryBaseC1ERKNS0_6ResultERKNS0_14ActionMetadataERKNSt7__cxx1112basic_stringIcSt11char_traitsIcESaIcEEESF_',
                                            'Param' => {
                                                         '0' => {
                                                                  'name' => 'this',
                                                                  'type' => '712427'
                                                                },
                                                         '1' => {
                                                                  'name' => 'result',
                                                                  'type' => '708119'
                                                                },
                                                         '2' => {
                                                                  'name' => 'metadata',
                                                                  'type' => '709086'
                                                                },
                                                         '3' => {
                                                                  'name' => 'widget_id',
                                                                  'type' => '43056'
                                                                },
                                                         '4' => {
                                                                  'name' => 'action_id',
                                                                  'offset' => '0',
                                                                  'type' => '43056'
                                                                }
                                                       },
                                            'ShortName' => 'ActivationQueryBase',
                                            'Source' => 'ActivationQueryBase.cpp',
                                            'SourceLine' => '35'
                                          },
                            '26710721' => {
                                            'Class' => '656948',
                                            'Constructor' => 1,
                                            'Header' => 'ActivationQueryBase.h',
                                            'MnglName' => '_ZN5unity6scopes19ActivationQueryBaseC2ERKNS0_6ResultERKNS0_14ActionMetadataERKNSt7__cxx1112basic_stringIcSt11char_traitsIcESaIcEEE',
                                            'Param' => {
                                                         '0' => {
                                                                  'name' => 'this',
                                                                  'type' => '712427'
                                                                },
                                                         '1' => {
                                                                  'name' => 'update_result',
